Archive member included to satisfy reference by file (symbol)

/opt/esp-open-sdk/sdk/lib/libmain.a(debug-vector.o)
                              (_DebugExceptionVector)
/opt/esp-open-sdk/sdk/lib/libmain.a(double-vector.o)
                              (_DoubleExceptionVector)
/opt/esp-open-sdk/sdk/lib/libmain.a(kernel-vector.o)
                              (_KernelExceptionVector)
/opt/esp-open-sdk/sdk/lib/libmain.a(nmi-vector.o)
                              (_NMIExceptionVector)
/opt/esp-open-sdk/sdk/lib/libmain.a(user-vector.o)
                              (_UserExceptionVector)
/opt/esp-open-sdk/sdk/lib/libmain.a(vector.o)
                              (call_user_start)
/opt/esp-open-sdk/sdk/lib/libmain.a(app_main.o)
                              /opt/esp-open-sdk/sdk/lib/libmain.a(nmi-vector.o) (NMI_Handler)
/opt/esp-open-sdk/sdk/lib/libmain.a(ets_timer.o)
                              /opt/esp-open-sdk/sdk/lib/libmain.a(app_main.o) (ets_timer_setfn)
/opt/esp-open-sdk/sdk/lib/libmain.a(mem_manager.o)
                              /opt/esp-open-sdk/sdk/lib/libmain.a(app_main.o) (pvPortMalloc)
/opt/esp-open-sdk/sdk/lib/libmain.a(spi_flash.o)
                              /opt/esp-open-sdk/sdk/lib/libmain.a(app_main.o) (spi_flash_get_id)
/opt/esp-open-sdk/sdk/lib/libmain.a(user_interface.o)
                              /opt/esp-open-sdk/sdk/lib/libmain.a(app_main.o) (done_cb)
/opt/esp-open-sdk/sdk/lib/libmain.a(eagle_lib.o)
                              /opt/esp-open-sdk/sdk/lib/libmain.a(user_interface.o) (ets_sprintf)
/opt/esp-open-sdk/sdk/lib/libmain.a(eagle_lwip_if.o)
                              /opt/esp-open-sdk/sdk/lib/libmain.a(user_interface.o) (hostname)
/opt/sming/Sming/compiler/lib//libsming.a(user_main.o)
                              /opt/esp-open-sdk/sdk/lib/libmain.a(app_main.o) (user_init)
/opt/sming/Sming/compiler/lib//libsming.a(System.o)
                              /opt/sming/Sming/compiler/lib//libsming.a(user_main.o) (_ZN11SystemClass10initializeEv)
/opt/sming/Sming/compiler/lib//libsming.a(esp_cplusplus.o)
                              /opt/sming/Sming/compiler/lib//libsming.a(user_main.o) (cpp_core_initialize)
/opt/sming/Sming/compiler/lib//libsming.a(m_printf.o)
                              /opt/sming/Sming/compiler/lib//libsming.a(esp_cplusplus.o) (m_printf)
/opt/sming/Sming/compiler/lib//libsming.a(stringconversion.o)
                              /opt/sming/Sming/compiler/lib//libsming.a(m_printf.o) (ltoa_w)
/opt/sming/Sming/compiler/lib//libsming.a(IPAddress.o)
                              /opt/sming/Sming/compiler/lib//libsming.a(user_main.o) (_ZN9IPAddressC1Ehhhh)
/opt/sming/Sming/compiler/lib//libsming.a(Print.o)
                              /opt/sming/Sming/compiler/lib//libsming.a(IPAddress.o) (_ZN5Print5printEc)
/opt/sming/Sming/compiler/lib//libsming.a(WString.o)
                              /opt/sming/Sming/compiler/lib//libsming.a(IPAddress.o) (_ZN6StringD1Ev)
/opt/sming/Sming/compiler/lib//libsming.a(Interrupts.o)
                              /opt/sming/Sming/compiler/lib//libsming.a(System.o) (_Z12noInterruptsv)
/opt/sming/Sming/compiler/lib//libsming.a(Digital.o)
                              /opt/sming/Sming/compiler/lib//libsming.a(Interrupts.o) (_Z7pinModeth)
out/build/app_app.a(application.o)
                              /opt/sming/Sming/compiler/lib//libsming.a(user_main.o) (_Z4initv)
/opt/sming/Sming/compiler/lib//libmicroc.a(isspace.o)
                              /opt/sming/Sming/compiler/lib//libsming.a(WString.o) (isspace)
/opt/sming/Sming/compiler/lib//libmicroc.a(tolower.o)
                              /opt/sming/Sming/compiler/lib//libsming.a(WString.o) (tolower)
/opt/sming/Sming/compiler/lib//libmicroc.a(toupper.o)
                              /opt/sming/Sming/compiler/lib//libsming.a(WString.o) (toupper)
/opt/sming/Sming/compiler/lib//libmicroc.a(atof.o)
                              /opt/sming/Sming/compiler/lib//libsming.a(WString.o) (atof)
/opt/sming/Sming/compiler/lib//libmicroc.a(atoi.o)
                              /opt/sming/Sming/compiler/lib//libsming.a(WString.o) (atoi)
/opt/sming/Sming/compiler/lib//libmicroc.a(strtod.o)
                              /opt/sming/Sming/compiler/lib//libmicroc.a(atof.o) (strtod)
/opt/sming/Sming/compiler/lib//libmicroc.a(__fpclassify.o)
                              /opt/sming/Sming/compiler/lib//libsming.a(stringconversion.o) (__fpclassifyd)
/opt/sming/Sming/compiler/lib//libmicroc.a(strchr.o)
                              /opt/sming/Sming/compiler/lib//libsming.a(WString.o) (strchr)
/opt/sming/Sming/compiler/lib//libmicroc.a(strrchr.o)
                              /opt/sming/Sming/compiler/lib//libsming.a(WString.o) (strrchr)
/opt/sming/Sming/compiler/lib//libmicroc.a(strchrnul.o)
                              /opt/sming/Sming/compiler/lib//libmicroc.a(strchr.o) (__strchrnul)
/opt/sming/Sming/compiler/lib//libmicroc.a(malloc.o)
                              /opt/sming/Sming/compiler/lib//libsming.a(esp_cplusplus.o) (malloc)
/opt/sming/Sming/compiler/lib//libmicroc.a(abort.o)
                              /opt/sming/Sming/compiler/lib//libsming.a(System.o) (abort)
/opt/sming/Sming/compiler/lib//libmicroc.a(floatscan.o)
                              /opt/sming/Sming/compiler/lib//libmicroc.a(strtod.o) (__floatscan)
/opt/sming/Sming/compiler/lib//libmicroc.a(shgetc.o)
                              /opt/sming/Sming/compiler/lib//libmicroc.a(strtod.o) (__shlim)
/opt/sming/Sming/compiler/lib//libmicroc.a(__uflow.o)
                              /opt/sming/Sming/compiler/lib//libmicroc.a(shgetc.o) (__uflow)
/opt/sming/Sming/compiler/lib//libmicroc.a(__toread.o)
                              /opt/sming/Sming/compiler/lib//libmicroc.a(__uflow.o) (__toread)
/opt/sming/Sming/compiler/lib//libmicroc.a(__stdio_exit.o)
                              /opt/sming/Sming/compiler/lib//libmicroc.a(__toread.o) (__stdio_exit_needed)
/opt/sming/Sming/compiler/lib//libmicroc.a(fmodl.o)
                              /opt/sming/Sming/compiler/lib//libmicroc.a(floatscan.o) (fmodl)
/opt/sming/Sming/compiler/lib//libmicroc.a(scalbn.o)
                              /opt/sming/Sming/compiler/lib//libmicroc.a(floatscan.o) (scalbn)
/opt/sming/Sming/compiler/lib//libmicroc.a(scalbnl.o)
                              /opt/sming/Sming/compiler/lib//libmicroc.a(floatscan.o) (scalbnl)
/opt/sming/Sming/compiler/lib//libmicroc.a(__errno_location.o)
                              /opt/sming/Sming/compiler/lib//libmicroc.a(floatscan.o) (__errno_location)
/opt/sming/Sming/compiler/lib//libmicroc.a(fmod.o)
                              /opt/sming/Sming/compiler/lib//libmicroc.a(fmodl.o) (fmod)
/opt/sming/Sming/compiler/lib//libmicrogcc.a(_ashldi3.o)
                              /opt/sming/Sming/compiler/lib//libmicroc.a(fmod.o) (__ashldi3)
/opt/sming/Sming/compiler/lib//libmicrogcc.a(_cmpdf2.o)
                              /opt/sming/Sming/compiler/lib//libmicroc.a(floatscan.o) (__eqdf2)
/opt/sming/Sming/compiler/lib//libmicrogcc.a(_lshrdi3.o)
                              /opt/sming/Sming/compiler/lib//libmicroc.a(fmod.o) (__lshrdi3)
/opt/sming/Sming/compiler/lib//libmicrogcc.a(_modsi3.o)
                              /opt/sming/Sming/compiler/lib//libsming.a(stringconversion.o) (__modsi3)
/opt/esp-open-sdk/xtensa-lx106-elf/xtensa-lx106-elf/sysroot/usr/lib/libhal.a(int_asm--set_intclear.o)
                              /opt/esp-open-sdk/sdk/lib/libmain.a(app_main.o) (xthal_set_intclear)
/opt/esp-open-sdk/sdk/lib/libphy.a(phy.o)
                              /opt/esp-open-sdk/sdk/lib/libmain.a(app_main.o) (phy_enable_agc)
/opt/esp-open-sdk/sdk/lib/libphy.a(phy_chip_v6_ana.o)
                              /opt/esp-open-sdk/sdk/lib/libmain.a(app_main.o) (chip_v6_set_chan_offset)
/opt/esp-open-sdk/sdk/lib/libphy.a(phy_chip_v6.o)
                              /opt/esp-open-sdk/sdk/lib/libphy.a(phy_chip_v6_ana.o) (g_phyFuns)
/opt/esp-open-sdk/sdk/lib/libphy.a(phy_chip_v6_cal.o)
                              /opt/esp-open-sdk/sdk/lib/libphy.a(phy_chip_v6.o) (phy_tx_pwr_error)
/opt/esp-open-sdk/sdk/lib/libphy.a(phy_chip_v6_unused.o)
                              /opt/esp-open-sdk/sdk/lib/libphy.a(phy_chip_v6.o) (chip_v6_set_sense)
/opt/esp-open-sdk/sdk/lib/libphy.a(phy_sleep.o)
                              /opt/esp-open-sdk/sdk/lib/libphy.a(phy_chip_v6.o) (pm_set_sleep_cycles)
/opt/esp-open-sdk/sdk/lib/libpp.a(if_hwctrl.o)
                              /opt/esp-open-sdk/sdk/lib/libmain.a(user_interface.o) (ic_set_vif)
/opt/esp-open-sdk/sdk/lib/libpp.a(lmac.o)
                              /opt/esp-open-sdk/sdk/lib/libmain.a(app_main.o) (lmacInit)
/opt/esp-open-sdk/sdk/lib/libpp.a(pm.o)
                              /opt/esp-open-sdk/sdk/lib/libmain.a(user_interface.o) (pm_rtc_clock_cali_proc)
/opt/esp-open-sdk/sdk/lib/libpp.a(pm_for_bcn_only_mode.o)
                              /opt/esp-open-sdk/sdk/lib/libpp.a(pm.o) (fpm_is_open)
/opt/esp-open-sdk/sdk/lib/libpp.a(pp.o)
                              /opt/esp-open-sdk/sdk/lib/libpp.a(pm.o) (pend_flag_noise_check)
/opt/esp-open-sdk/sdk/lib/libpp.a(rate_control.o)
                              /opt/esp-open-sdk/sdk/lib/libpp.a(lmac.o) (RC_SetBasicRate)
/opt/esp-open-sdk/sdk/lib/libpp.a(trc.o)
                              /opt/esp-open-sdk/sdk/lib/libmain.a(user_interface.o) (rc_set_rate_limit_id)
/opt/esp-open-sdk/sdk/lib/libpp.a(wdev.o)
                              /opt/esp-open-sdk/sdk/lib/libpp.a(pp.o) (wDevCtrl)
/opt/esp-open-sdk/sdk/lib/libpp.a(esf_buf.o)
                              /opt/esp-open-sdk/sdk/lib/libpp.a(wdev.o) (esf_rx_buf_alloc)
/opt/esp-open-sdk/sdk/lib/libnet80211.a(ieee80211.o)
                              /opt/esp-open-sdk/sdk/lib/libmain.a(app_main.o) (g_ic)
/opt/esp-open-sdk/sdk/lib/libnet80211.a(ieee80211_crypto.o)
                              /opt/esp-open-sdk/sdk/lib/libnet80211.a(ieee80211.o) (ieee80211_crypto_attach)
/opt/esp-open-sdk/sdk/lib/libnet80211.a(ieee80211_ets.o)
                              /opt/esp-open-sdk/sdk/lib/libpp.a(pm.o) (ieee80211_getmgtframe)
/opt/esp-open-sdk/sdk/lib/libnet80211.a(ieee80211_hostap.o)
                              /opt/esp-open-sdk/sdk/lib/libmain.a(user_interface.o) (BcnEb_update)
/opt/esp-open-sdk/sdk/lib/libnet80211.a(ieee80211_ht.o)
                              /opt/esp-open-sdk/sdk/lib/libmain.a(user_interface.o) (ieee80211_ht_attach)
/opt/esp-open-sdk/sdk/lib/libnet80211.a(ieee80211_input.o)
                              /opt/esp-open-sdk/sdk/lib/libnet80211.a(ieee80211_hostap.o) (ieee80211_decap)
/opt/esp-open-sdk/sdk/lib/libnet80211.a(ieee80211_mesh_quick.o)
                              /opt/esp-open-sdk/sdk/lib/libnet80211.a(ieee80211_hostap.o) (ieee80211_mesh_quick_get)
/opt/esp-open-sdk/sdk/lib/libnet80211.a(ieee80211_output.o)
                              /opt/esp-open-sdk/sdk/lib/libmain.a(eagle_lwip_if.o) (ieee80211_output_pbuf)
/opt/esp-open-sdk/sdk/lib/libnet80211.a(ieee80211_phy.o)
                              /opt/esp-open-sdk/sdk/lib/libmain.a(app_main.o) (ieee80211_phy_init)
/opt/esp-open-sdk/sdk/lib/libnet80211.a(ieee80211_power.o)
                              /opt/esp-open-sdk/sdk/lib/libnet80211.a(ieee80211_hostap.o) (ieee80211_psq_init)
/opt/esp-open-sdk/sdk/lib/libnet80211.a(ieee80211_proto.o)
                              /opt/esp-open-sdk/sdk/lib/libnet80211.a(ieee80211.o) (ieee80211_proto_attach)
/opt/esp-open-sdk/sdk/lib/libnet80211.a(ieee80211_rfid.o)
                              /opt/esp-open-sdk/sdk/lib/libmain.a(user_interface.o) (ieee80211_rfid_locp_recv_open)
/opt/esp-open-sdk/sdk/lib/libnet80211.a(ieee80211_scan.o)
                              /opt/esp-open-sdk/sdk/lib/libpp.a(pp.o) (gScanStruct)
/opt/esp-open-sdk/sdk/lib/libnet80211.a(ieee80211_sta.o)
                              /opt/esp-open-sdk/sdk/lib/libmain.a(user_interface.o) (ieee80211_sta_new_state)
/opt/esp-open-sdk/sdk/lib/libnet80211.a(wl_chm.o)
                              /opt/esp-open-sdk/sdk/lib/libnet80211.a(ieee80211.o) (chm_init)
/opt/esp-open-sdk/sdk/lib/libnet80211.a(wl_cnx.o)
                              /opt/esp-open-sdk/sdk/lib/libmain.a(user_interface.o) (sta_con_timer)
/opt/esp-open-sdk/sdk/lib/libnet80211.a(ieee80211_action.o)
                              /opt/esp-open-sdk/sdk/lib/libnet80211.a(ieee80211_ht.o) (ieee80211_send_action_register)
/opt/esp-open-sdk/sdk/lib/libnet80211.a(ieee80211_action_vendor.o)
                              /opt/esp-open-sdk/sdk/lib/libnet80211.a(ieee80211.o) (ieee80211_action_vendor_spec_attach)
/opt/esp-open-sdk/sdk/lib/libnet80211.a(ieee80211_crypto_ccmp.o)
                              /opt/esp-open-sdk/sdk/lib/libnet80211.a(ieee80211_input.o) (ccmp)
/opt/esp-open-sdk/sdk/lib/libnet80211.a(ieee80211_ie_vendor.o)
                              /opt/esp-open-sdk/sdk/lib/libnet80211.a(ieee80211_mesh_quick.o) (ieee80211_add_ie_vendor_esp_mesh_assoc)
/opt/esp-open-sdk/sdk/lib/liblwip.a(dhcp.o)
                              /opt/esp-open-sdk/sdk/lib/libnet80211.a(wl_cnx.o) (dhcp_release)
/opt/esp-open-sdk/sdk/lib/liblwip.a(dhcpserver.o)
                              /opt/esp-open-sdk/sdk/lib/libmain.a(user_interface.o) (dhcps_start)
/opt/esp-open-sdk/sdk/lib/liblwip.a(dns.o)
                              /opt/esp-open-sdk/sdk/lib/liblwip.a(dhcp.o) (dns_setserver)
/opt/esp-open-sdk/sdk/lib/liblwip.a(espconn_tcp.o)
                              /opt/esp-open-sdk/sdk/lib/libmain.a(app_main.o) (espconn_init)
/opt/esp-open-sdk/sdk/lib/liblwip.a(etharp.o)
                              /opt/esp-open-sdk/sdk/lib/libmain.a(user_interface.o) (ethbroadcast)
/opt/esp-open-sdk/sdk/lib/liblwip.a(init.o)
                              /opt/esp-open-sdk/sdk/lib/libmain.a(app_main.o) (lwip_init)
/opt/esp-open-sdk/sdk/lib/liblwip.a(ip_addr.o)
                              /opt/esp-open-sdk/sdk/lib/liblwip.a(dhcp.o) (ip_addr_any)
/opt/esp-open-sdk/sdk/lib/liblwip.a(ip.o)
                              /opt/esp-open-sdk/sdk/lib/liblwip.a(etharp.o) (ip_input)
/opt/esp-open-sdk/sdk/lib/liblwip.a(memp.o)
                              /opt/esp-open-sdk/sdk/lib/liblwip.a(etharp.o) (memp_sizes)
/opt/esp-open-sdk/sdk/lib/liblwip.a(netif.o)
                              /opt/esp-open-sdk/sdk/lib/liblwip.a(dhcp.o) (netif_list)
/opt/esp-open-sdk/sdk/lib/liblwip.a(pbuf.o)
                              /opt/esp-open-sdk/sdk/lib/libnet80211.a(ieee80211_hostap.o) (pbuf_alloc)
/opt/esp-open-sdk/sdk/lib/liblwip.a(raw.o)
                              /opt/esp-open-sdk/sdk/lib/liblwip.a(ip.o) (raw_input)
/opt/esp-open-sdk/sdk/lib/liblwip.a(tcp_in.o)
                              /opt/esp-open-sdk/sdk/lib/liblwip.a(ip.o) (tcp_input)
/opt/esp-open-sdk/sdk/lib/liblwip.a(tcp.o)
                              /opt/esp-open-sdk/sdk/lib/liblwip.a(espconn_tcp.o) (tcp_active_pcbs)
/opt/esp-open-sdk/sdk/lib/liblwip.a(tcp_out.o)
                              /opt/esp-open-sdk/sdk/lib/liblwip.a(tcp.o) (tcp_send_fin)
/opt/esp-open-sdk/sdk/lib/liblwip.a(timers.o)
                              /opt/esp-open-sdk/sdk/lib/liblwip.a(tcp_in.o) (tcp_timer_needed)
/opt/esp-open-sdk/sdk/lib/liblwip.a(udp.o)
                              /opt/esp-open-sdk/sdk/lib/liblwip.a(ip.o) (udp_input)
/opt/esp-open-sdk/sdk/lib/liblwip.a(espconn.o)
                              /opt/esp-open-sdk/sdk/lib/liblwip.a(espconn_tcp.o) (plink_active)
/opt/esp-open-sdk/sdk/lib/liblwip.a(espconn_udp.o)
                              /opt/esp-open-sdk/sdk/lib/liblwip.a(espconn.o) (espconn_udp_sent)
/opt/esp-open-sdk/sdk/lib/liblwip.a(icmp.o)
                              /opt/esp-open-sdk/sdk/lib/liblwip.a(ip.o) (icmp_input)
/opt/esp-open-sdk/sdk/lib/liblwip.a(igmp.o)
                              /opt/esp-open-sdk/sdk/lib/liblwip.a(init.o) (igmp_init)
/opt/esp-open-sdk/sdk/lib/liblwip.a(inet_chksum.o)
                              /opt/esp-open-sdk/sdk/lib/liblwip.a(tcp_in.o) (inet_chksum_pseudo)
/opt/esp-open-sdk/sdk/lib/libwpa.a(ap_config.o)
                              /opt/esp-open-sdk/sdk/lib/libnet80211.a(ieee80211_hostap.o) (hostapd_setup_wpa_psk)
/opt/esp-open-sdk/sdk/lib/libwpa.a(common.o)
                              /opt/esp-open-sdk/sdk/lib/libmain.a(user_interface.o) (hexstr2bin)
/opt/esp-open-sdk/sdk/lib/libwpa.a(os_xtensa.o)
                              /opt/esp-open-sdk/sdk/lib/libwpa.a(common.o) (os_get_time)
/opt/esp-open-sdk/sdk/lib/libwpa.a(wpa_auth.o)
                              /opt/esp-open-sdk/sdk/lib/libnet80211.a(ieee80211_hostap.o) (wpa_init)
/opt/esp-open-sdk/sdk/lib/libwpa.a(wpa_auth_ie.o)
                              /opt/esp-open-sdk/sdk/lib/libwpa.a(wpa_auth.o) (wpa_auth_gen_wpa_ie)
/opt/esp-open-sdk/sdk/lib/libwpa.a(wpa.o)
                              /opt/esp-open-sdk/sdk/lib/libnet80211.a(ieee80211_sta.o) (wpa_sm_rx_eapol)
/opt/esp-open-sdk/sdk/lib/libwpa.a(wpa_common.o)
                              /opt/esp-open-sdk/sdk/lib/libwpa.a(wpa_auth_ie.o) (wpa_parse_wpa_ie_rsn)
/opt/esp-open-sdk/sdk/lib/libwpa.a(wpa_debug.o)
                              /opt/esp-open-sdk/sdk/lib/libwpa.a(wpa_auth.o) (eloop_cancel_timeout)
/opt/esp-open-sdk/sdk/lib/libwpa.a(wpa_ie.o)
                              /opt/esp-open-sdk/sdk/lib/libnet80211.a(ieee80211_scan.o) (wpa_parse_wpa_ie)
/opt/esp-open-sdk/sdk/lib/libwpa.a(wpa_main.o)
                              /opt/esp-open-sdk/sdk/lib/libnet80211.a(wl_cnx.o) (ppInstallKey)
/opt/esp-open-sdk/sdk/lib/libwpa.a(wpas_glue.o)
                              /opt/esp-open-sdk/sdk/lib/libwpa.a(wpa.o) (wpa_sm_alloc_eapol)
/opt/esp-open-sdk/sdk/lib/libwpa.a(aes-wrap.o)
                              /opt/esp-open-sdk/sdk/lib/libwpa.a(wpa_auth.o) (aes_wrap)
/opt/esp-open-sdk/sdk/lib/libwpa.a(aes-internal-enc.o)
                              /opt/esp-open-sdk/sdk/lib/libwpa.a(aes-wrap.o) (aes_encrypt_init)
/opt/esp-open-sdk/sdk/lib/libwpa.a(aes-internal.o)
                              /opt/esp-open-sdk/sdk/lib/libwpa.a(aes-internal-enc.o) (rijndaelKeySetupEnc)
/opt/sming/Sming/compiler/lib//libsming.a(Timer.o)
                              out/build/app_app.a(application.o) (_ZN5TimerC1Ev)
/opt/sming/Sming/compiler/lib//libmicrogcc.a(_ashrdi3.o)
                              /opt/esp-open-sdk/sdk/lib/libphy.a(phy_chip_v6.o) (__ashrdi3)
/opt/sming/Sming/compiler/lib//libmicrogcc.a(_divsf3.o)
                              /opt/esp-open-sdk/sdk/lib/libphy.a(phy_chip_v6_ana.o) (__divsf3)
/opt/sming/Sming/compiler/lib//libmicrogcc.a(_fixsfsi.o)
                              /opt/esp-open-sdk/sdk/lib/libphy.a(phy_chip_v6.o) (__fixsfsi)
/opt/esp-open-sdk/sdk/lib/libnet80211.a(ieee80211_crypto_tkip.o)
                              /opt/esp-open-sdk/sdk/lib/libwpa.a(wpa_auth.o) (tkip)
/opt/esp-open-sdk/sdk/lib/libnet80211.a(ieee80211_crypto_wep.o)
                              /opt/esp-open-sdk/sdk/lib/libwpa.a(wpa_auth.o) (wep)

Discarded input sections

 .text          0x0000000000000000        0x0 /opt/esp-open-sdk/sdk/lib/libmain.a(debug-vector.o)
 .data          0x0000000000000000        0x0 /opt/esp-open-sdk/sdk/lib/libmain.a(debug-vector.o)
 .bss           0x0000000000000000        0x0 /opt/esp-open-sdk/sdk/lib/libmain.a(debug-vector.o)
 .xt.prop       0x0000000000000000       0x18 /opt/esp-open-sdk/sdk/lib/libmain.a(debug-vector.o)
 .text          0x0000000000000000        0x0 /opt/esp-open-sdk/sdk/lib/libmain.a(double-vector.o)
 .data          0x0000000000000000        0x0 /opt/esp-open-sdk/sdk/lib/libmain.a(double-vector.o)
 .bss           0x0000000000000000        0x0 /opt/esp-open-sdk/sdk/lib/libmain.a(double-vector.o)
 .xt.prop       0x0000000000000000       0x18 /opt/esp-open-sdk/sdk/lib/libmain.a(double-vector.o)
 .text          0x0000000000000000        0x0 /opt/esp-open-sdk/sdk/lib/libmain.a(kernel-vector.o)
 .data          0x0000000000000000        0x0 /opt/esp-open-sdk/sdk/lib/libmain.a(kernel-vector.o)
 .bss           0x0000000000000000        0x0 /opt/esp-open-sdk/sdk/lib/libmain.a(kernel-vector.o)
 .xt.prop       0x0000000000000000       0x18 /opt/esp-open-sdk/sdk/lib/libmain.a(kernel-vector.o)
 .literal       0x0000000000000000        0x0 /opt/esp-open-sdk/sdk/lib/libmain.a(nmi-vector.o)
 .NMIExceptionVector.literal
                0x0000000000000000        0x0 /opt/esp-open-sdk/sdk/lib/libmain.a(nmi-vector.o)
 .xt.lit        0x0000000000000000       0x10 /opt/esp-open-sdk/sdk/lib/libmain.a(nmi-vector.o)
 .xt.prop       0x0000000000000000       0x3c /opt/esp-open-sdk/sdk/lib/libmain.a(nmi-vector.o)
 .literal       0x0000000000000000        0x0 /opt/esp-open-sdk/sdk/lib/libmain.a(user-vector.o)
 .UserExceptionVector.literal
                0x0000000000000000        0x0 /opt/esp-open-sdk/sdk/lib/libmain.a(user-vector.o)
 .data          0x0000000000000000        0x0 /opt/esp-open-sdk/sdk/lib/libmain.a(user-vector.o)
 .bss           0x0000000000000000        0x0 /opt/esp-open-sdk/sdk/lib/libmain.a(user-vector.o)
 .xt.lit        0x0000000000000000       0x10 /opt/esp-open-sdk/sdk/lib/libmain.a(user-vector.o)
 .xt.prop       0x0000000000000000       0x3c /opt/esp-open-sdk/sdk/lib/libmain.a(user-vector.o)
 .UserEnter.literal
                0x0000000000000000        0x0 /opt/esp-open-sdk/sdk/lib/libmain.a(vector.o)
 .text          0x0000000000000000        0x0 /opt/esp-open-sdk/sdk/lib/libmain.a(vector.o)
 .data          0x0000000000000000        0x0 /opt/esp-open-sdk/sdk/lib/libmain.a(vector.o)
 .bss           0x0000000000000000        0x0 /opt/esp-open-sdk/sdk/lib/libmain.a(vector.o)
 .xt.lit        0x0000000000000000        0x8 /opt/esp-open-sdk/sdk/lib/libmain.a(vector.o)
 .xt.prop       0x0000000000000000       0x18 /opt/esp-open-sdk/sdk/lib/libmain.a(vector.o)
 .literal       0x0000000000000000        0x0 /opt/esp-open-sdk/sdk/lib/libmain.a(app_main.o)
 .irom0.literal
                0x0000000000000000        0x0 /opt/esp-open-sdk/sdk/lib/libmain.a(app_main.o)
 .xt.lit        0x0000000000000000       0xa0 /opt/esp-open-sdk/sdk/lib/libmain.a(app_main.o)
 .xt.prop       0x0000000000000000      0xe28 /opt/esp-open-sdk/sdk/lib/libmain.a(app_main.o)
 .literal       0x0000000000000000        0x0 /opt/esp-open-sdk/sdk/lib/libmain.a(ets_timer.o)
 .irom0.literal
                0x0000000000000000        0x0 /opt/esp-open-sdk/sdk/lib/libmain.a(ets_timer.o)
 .data          0x0000000000000000        0x0 /opt/esp-open-sdk/sdk/lib/libmain.a(ets_timer.o)
 .xt.lit        0x0000000000000000       0x48 /opt/esp-open-sdk/sdk/lib/libmain.a(ets_timer.o)
 .xt.prop       0x0000000000000000      0x630 /opt/esp-open-sdk/sdk/lib/libmain.a(ets_timer.o)
 .irom0.literal
                0x0000000000000000        0x0 /opt/esp-open-sdk/sdk/lib/libmain.a(mem_manager.o)
 .literal       0x0000000000000000        0x0 /opt/esp-open-sdk/sdk/lib/libmain.a(mem_manager.o)
 .data          0x0000000000000000        0x0 /opt/esp-open-sdk/sdk/lib/libmain.a(mem_manager.o)
 .xt.lit        0x0000000000000000       0x60 /opt/esp-open-sdk/sdk/lib/libmain.a(mem_manager.o)
 .xt.prop       0x0000000000000000      0x474 /opt/esp-open-sdk/sdk/lib/libmain.a(mem_manager.o)
 .literal       0x0000000000000000        0x0 /opt/esp-open-sdk/sdk/lib/libmain.a(spi_flash.o)
 .irom0.literal
                0x0000000000000000        0x0 /opt/esp-open-sdk/sdk/lib/libmain.a(spi_flash.o)
 .data          0x0000000000000000        0x0 /opt/esp-open-sdk/sdk/lib/libmain.a(spi_flash.o)
 .irom0.text    0x0000000000000000        0xb /opt/esp-open-sdk/sdk/lib/libmain.a(spi_flash.o)
 .xt.lit        0x0000000000000000       0x58 /opt/esp-open-sdk/sdk/lib/libmain.a(spi_flash.o)
 .xt.prop       0x0000000000000000      0x39c /opt/esp-open-sdk/sdk/lib/libmain.a(spi_flash.o)
 .irom0.literal
                0x0000000000000000        0x0 /opt/esp-open-sdk/sdk/lib/libmain.a(user_interface.o)
 .literal       0x0000000000000000        0x0 /opt/esp-open-sdk/sdk/lib/libmain.a(user_interface.o)
 .xt.lit        0x0000000000000000      0x498 /opt/esp-open-sdk/sdk/lib/libmain.a(user_interface.o)
 .xt.prop       0x0000000000000000     0x3768 /opt/esp-open-sdk/sdk/lib/libmain.a(user_interface.o)
 .irom0.literal
                0x0000000000000000        0x0 /opt/esp-open-sdk/sdk/lib/libmain.a(eagle_lib.o)
 .text          0x0000000000000000        0x0 /opt/esp-open-sdk/sdk/lib/libmain.a(eagle_lib.o)
 .data          0x0000000000000000        0x0 /opt/esp-open-sdk/sdk/lib/libmain.a(eagle_lib.o)
 .bss           0x0000000000000000        0x0 /opt/esp-open-sdk/sdk/lib/libmain.a(eagle_lib.o)
 .xt.lit        0x0000000000000000       0x18 /opt/esp-open-sdk/sdk/lib/libmain.a(eagle_lib.o)
 .xt.prop       0x0000000000000000      0x858 /opt/esp-open-sdk/sdk/lib/libmain.a(eagle_lib.o)
 .irom0.literal
                0x0000000000000000        0x0 /opt/esp-open-sdk/sdk/lib/libmain.a(eagle_lwip_if.o)
 .text          0x0000000000000000        0x0 /opt/esp-open-sdk/sdk/lib/libmain.a(eagle_lwip_if.o)
 .xt.lit        0x0000000000000000       0x28 /opt/esp-open-sdk/sdk/lib/libmain.a(eagle_lwip_if.o)
 .xt.prop       0x0000000000000000      0x2a0 /opt/esp-open-sdk/sdk/lib/libmain.a(eagle_lwip_if.o)
 .group         0x0000000000000000       0x14 /opt/sming/Sming/compiler/lib//libsming.a(user_main.o)
 .literal.user_init
                0x0000000000000000        0x0 /opt/sming/Sming/compiler/lib//libsming.a(user_main.o)
 .literal.user_rf_pre_init
                0x0000000000000000        0x0 /opt/sming/Sming/compiler/lib//libsming.a(user_main.o)
 .literal.startup._GLOBAL__sub_I_user_main_cpp
                0x0000000000000000        0x0 /opt/sming/Sming/compiler/lib//libsming.a(user_main.o)
 .text          0x0000000000000000        0x0 /opt/sming/Sming/compiler/lib//libsming.a(user_main.o)
 .data          0x0000000000000000        0x0 /opt/sming/Sming/compiler/lib//libsming.a(user_main.o)
 .bss           0x0000000000000000        0x0 /opt/sming/Sming/compiler/lib//libsming.a(user_main.o)
 .text.user_rf_pre_init
                0x0000000000000000       0x34 /opt/sming/Sming/compiler/lib//libsming.a(user_main.o)
 .xt.lit        0x0000000000000000       0x18 /opt/sming/Sming/compiler/lib//libsming.a(user_main.o)
 .xt.prop       0x0000000000000000       0xcc /opt/sming/Sming/compiler/lib//libsming.a(user_main.o)
 .group         0x0000000000000000       0x10 /opt/sming/Sming/compiler/lib//libsming.a(System.o)
 .group         0x0000000000000000       0x10 /opt/sming/Sming/compiler/lib//libsming.a(System.o)
 .group         0x0000000000000000       0x14 /opt/sming/Sming/compiler/lib//libsming.a(System.o)
 .group         0x0000000000000000       0x14 /opt/sming/Sming/compiler/lib//libsming.a(System.o)
 .group         0x0000000000000000       0x14 /opt/sming/Sming/compiler/lib//libsming.a(System.o)
 .group         0x0000000000000000       0x14 /opt/sming/Sming/compiler/lib//libsming.a(System.o)
 .group         0x0000000000000000       0x14 /opt/sming/Sming/compiler/lib//libsming.a(System.o)
 .group         0x0000000000000000       0x14 /opt/sming/Sming/compiler/lib//libsming.a(System.o)
 .group         0x0000000000000000       0x14 /opt/sming/Sming/compiler/lib//libsming.a(System.o)
 .group         0x0000000000000000       0x14 /opt/sming/Sming/compiler/lib//libsming.a(System.o)
 .group         0x0000000000000000       0x14 /opt/sming/Sming/compiler/lib//libsming.a(System.o)
 .group         0x0000000000000000       0x14 /opt/sming/Sming/compiler/lib//libsming.a(System.o)
 .group         0x0000000000000000        0xc /opt/sming/Sming/compiler/lib//libsming.a(System.o)
 .group         0x0000000000000000        0xc /opt/sming/Sming/compiler/lib//libsming.a(System.o)
 .group         0x0000000000000000        0xc /opt/sming/Sming/compiler/lib//libsming.a(System.o)
 .group         0x0000000000000000        0xc /opt/sming/Sming/compiler/lib//libsming.a(System.o)
 .literal._ZN11SystemClassC2Ev
                0x0000000000000000        0x0 /opt/sming/Sming/compiler/lib//libsming.a(System.o)
 .literal._ZN11SystemClass10initializeEv
                0x0000000000000000        0x0 /opt/sming/Sming/compiler/lib//libsming.a(System.o)
 .literal._ZN11SystemClass7restartEv
                0x0000000000000000        0x0 /opt/sming/Sming/compiler/lib//libsming.a(System.o)
 .literal._ZN11SystemClass7isReadyEv
                0x0000000000000000        0x0 /opt/sming/Sming/compiler/lib//libsming.a(System.o)
 .literal._ZN11SystemClass7onReadyE8DelegateIFvvEE
                0x0000000000000000        0x0 /opt/sming/Sming/compiler/lib//libsming.a(System.o)
 .literal._ZN11SystemClass7onReadyEP19ISystemReadyHandler
                0x0000000000000000        0x0 /opt/sming/Sming/compiler/lib//libsming.a(System.o)
 .literal._ZN11SystemClass15setCpuFrequencyE12CpuFrequency
                0x0000000000000000        0x0 /opt/sming/Sming/compiler/lib//libsming.a(System.o)
 .literal._ZN11SystemClass15getCpuFrequencyEv
                0x0000000000000000        0x0 /opt/sming/Sming/compiler/lib//libsming.a(System.o)
 .literal._ZN11SystemClass9deepSleepEj16DeepSleepOptions
                0x0000000000000000        0x0 /opt/sming/Sming/compiler/lib//libsming.a(System.o)
 .iram.literal  0x0000000000000000        0x0 /opt/sming/Sming/compiler/lib//libsming.a(System.o)
 .literal._ZN11SystemClass19applyFirmwareUpdateEjji
                0x0000000000000000        0x0 /opt/sming/Sming/compiler/lib//libsming.a(System.o)
 .literal._ZN11SystemClass12readyHandlerEv
                0x0000000000000000        0x0 /opt/sming/Sming/compiler/lib//libsming.a(System.o)
 .literal._ZN11SystemClass18staticReadyHandlerEv
                0x0000000000000000        0x0 /opt/sming/Sming/compiler/lib//libsming.a(System.o)
 .literal.startup._GLOBAL__sub_I_System
                0x0000000000000000        0x0 /opt/sming/Sming/compiler/lib//libsming.a(System.o)
 .literal.exit._GLOBAL__sub_D_System
                0x0000000000000000        0x0 /opt/sming/Sming/compiler/lib//libsming.a(System.o)
 .text          0x0000000000000000        0x0 /opt/sming/Sming/compiler/lib//libsming.a(System.o)
 .data          0x0000000000000000        0x0 /opt/sming/Sming/compiler/lib//libsming.a(System.o)
 .bss           0x0000000000000000        0x0 /opt/sming/Sming/compiler/lib//libsming.a(System.o)
 .text._ZN11SystemClass7restartEv
                0x0000000000000000       0x17 /opt/sming/Sming/compiler/lib//libsming.a(System.o)
 .text._ZN11SystemClass7isReadyEv
                0x0000000000000000        0xe /opt/sming/Sming/compiler/lib//libsming.a(System.o)
 .text._ZN11SystemClass7onReadyE8DelegateIFvvEE
                0x0000000000000000       0xa1 /opt/sming/Sming/compiler/lib//libsming.a(System.o)
 .text._ZN11SystemClass7onReadyEP19ISystemReadyHandler
                0x0000000000000000       0x93 /opt/sming/Sming/compiler/lib//libsming.a(System.o)
 .text._ZN11SystemClass15setCpuFrequencyE12CpuFrequency
                0x0000000000000000       0x3c /opt/sming/Sming/compiler/lib//libsming.a(System.o)
 .text._ZN11SystemClass15getCpuFrequencyEv
                0x0000000000000000       0x17 /opt/sming/Sming/compiler/lib//libsming.a(System.o)
 .text._ZN11SystemClass9deepSleepEj16DeepSleepOptions
                0x0000000000000000       0x3f /opt/sming/Sming/compiler/lib//libsming.a(System.o)
 .rodata.str1.1
                0x0000000000000000       0x77 /opt/sming/Sming/compiler/lib//libsming.a(System.o)
 .iram.text     0x0000000000000000       0xcf /opt/sming/Sming/compiler/lib//libsming.a(System.o)
 .text._ZN11SystemClass19applyFirmwareUpdateEjji
                0x0000000000000000       0x68 /opt/sming/Sming/compiler/lib//libsming.a(System.o)
 .rodata._ZTV9CountableI8DelegateIFvvEEE
                0x0000000000000000       0x14 /opt/sming/Sming/compiler/lib//libsming.a(System.o)
 .rodata._ZTV9CountableIP19ISystemReadyHandlerE
                0x0000000000000000       0x14 /opt/sming/Sming/compiler/lib//libsming.a(System.o)
 .xt.lit        0x0000000000000000       0x70 /opt/sming/Sming/compiler/lib//libsming.a(System.o)
 .xt.prop       0x0000000000000000      0x3cc /opt/sming/Sming/compiler/lib//libsming.a(System.o)
 .xt.prop._ZTV9CountableI8DelegateIFvvEEE
                0x0000000000000000        0xc /opt/sming/Sming/compiler/lib//libsming.a(System.o)
 .xt.prop._ZTV9CountableIP19ISystemReadyHandlerE
                0x0000000000000000        0xc /opt/sming/Sming/compiler/lib//libsming.a(System.o)
 .literal.cpp_core_initialize
                0x0000000000000000        0x0 /opt/sming/Sming/compiler/lib//libsming.a(esp_cplusplus.o)
 .literal._Znwj
                0x0000000000000000        0x0 /opt/sming/Sming/compiler/lib//libsming.a(esp_cplusplus.o)
 .literal._Znaj
                0x0000000000000000        0x0 /opt/sming/Sming/compiler/lib//libsming.a(esp_cplusplus.o)
 .literal._ZdlPv
                0x0000000000000000        0x0 /opt/sming/Sming/compiler/lib//libsming.a(esp_cplusplus.o)
 .literal._ZdaPv
                0x0000000000000000        0x0 /opt/sming/Sming/compiler/lib//libsming.a(esp_cplusplus.o)
 .literal.__cxa_pure_virtual
                0x0000000000000000        0x0 /opt/sming/Sming/compiler/lib//libsming.a(esp_cplusplus.o)
 .literal.__cxa_deleted_virtual
                0x0000000000000000        0x0 /opt/sming/Sming/compiler/lib//libsming.a(esp_cplusplus.o)
 .literal.__cxa_guard_acquire
                0x0000000000000000        0x0 /opt/sming/Sming/compiler/lib//libsming.a(esp_cplusplus.o)
 .literal.__cxa_guard_release
                0x0000000000000000        0x0 /opt/sming/Sming/compiler/lib//libsming.a(esp_cplusplus.o)
 .literal.__cxa_guard_abort
                0x0000000000000000        0x0 /opt/sming/Sming/compiler/lib//libsming.a(esp_cplusplus.o)
 .text          0x0000000000000000        0x0 /opt/sming/Sming/compiler/lib//libsming.a(esp_cplusplus.o)
 .data          0x0000000000000000        0x0 /opt/sming/Sming/compiler/lib//libsming.a(esp_cplusplus.o)
 .bss           0x0000000000000000        0x0 /opt/sming/Sming/compiler/lib//libsming.a(esp_cplusplus.o)
 .text._Znwj    0x0000000000000000       0x17 /opt/sming/Sming/compiler/lib//libsming.a(esp_cplusplus.o)
 .rodata.str1.1
                0x0000000000000000       0x41 /opt/sming/Sming/compiler/lib//libsming.a(esp_cplusplus.o)
 .text.__cxa_pure_virtual
                0x0000000000000000       0x20 /opt/sming/Sming/compiler/lib//libsming.a(esp_cplusplus.o)
 .text.__cxa_deleted_virtual
                0x0000000000000000       0x20 /opt/sming/Sming/compiler/lib//libsming.a(esp_cplusplus.o)
 .text.__cxa_guard_acquire
                0x0000000000000000        0x2 /opt/sming/Sming/compiler/lib//libsming.a(esp_cplusplus.o)
 .text.__cxa_guard_release
                0x0000000000000000        0x2 /opt/sming/Sming/compiler/lib//libsming.a(esp_cplusplus.o)
 .text.__cxa_guard_abort
                0x0000000000000000        0x2 /opt/sming/Sming/compiler/lib//libsming.a(esp_cplusplus.o)
 .xt.lit        0x0000000000000000       0x38 /opt/sming/Sming/compiler/lib//libsming.a(esp_cplusplus.o)
 .xt.prop       0x0000000000000000      0x1d4 /opt/sming/Sming/compiler/lib//libsming.a(esp_cplusplus.o)
 .group         0x0000000000000000       0x14 /opt/sming/Sming/compiler/lib//libsming.a(m_printf.o)
 .literal._ZN17ESP01_DescriptionC5Ev
                0x0000000000000000        0x0 /opt/sming/Sming/compiler/lib//libsming.a(m_printf.o)
 .literal._Z20setMPrintfPrinterCbcPFvcE
                0x0000000000000000        0x0 /opt/sming/Sming/compiler/lib//libsming.a(m_printf.o)
 .literal.m_vsnprintf
                0x0000000000000000        0x0 /opt/sming/Sming/compiler/lib//libsming.a(m_printf.o)
 .literal.m_snprintf
                0x0000000000000000        0x0 /opt/sming/Sming/compiler/lib//libsming.a(m_printf.o)
 .literal.m_printf
                0x0000000000000000        0x0 /opt/sming/Sming/compiler/lib//libsming.a(m_printf.o)
 .literal.startup._GLOBAL__sub_I_cbc_printchar
                0x0000000000000000        0x0 /opt/sming/Sming/compiler/lib//libsming.a(m_printf.o)
 .text          0x0000000000000000        0x0 /opt/sming/Sming/compiler/lib//libsming.a(m_printf.o)
 .data          0x0000000000000000        0x0 /opt/sming/Sming/compiler/lib//libsming.a(m_printf.o)
 .bss           0x0000000000000000        0x0 /opt/sming/Sming/compiler/lib//libsming.a(m_printf.o)
 .text._ZN17ESP01_DescriptionC2Ev
                0x0000000000000000       0x3f /opt/sming/Sming/compiler/lib//libsming.a(m_printf.o)
 .text._Z20setMPrintfPrinterCbcPFvcE
                0x0000000000000000        0xb /opt/sming/Sming/compiler/lib//libsming.a(m_printf.o)
 .text.m_snprintf
                0x0000000000000000       0x2b /opt/sming/Sming/compiler/lib//libsming.a(m_printf.o)
 .rodata._ZL14EspDigitalPins
                0x0000000000000000       0xc0 /opt/sming/Sming/compiler/lib//libsming.a(m_printf.o)
 .xt.lit._ZN17ESP01_DescriptionC2Ev
                0x0000000000000000        0x8 /opt/sming/Sming/compiler/lib//libsming.a(m_printf.o)
 .xt.lit        0x0000000000000000       0x28 /opt/sming/Sming/compiler/lib//libsming.a(m_printf.o)
 .xt.prop._ZN17ESP01_DescriptionC2Ev
                0x0000000000000000       0x30 /opt/sming/Sming/compiler/lib//libsming.a(m_printf.o)
 .xt.prop       0x0000000000000000      0x45c /opt/sming/Sming/compiler/lib//libsming.a(m_printf.o)
 .literal.ltoa_w
                0x0000000000000000        0x0 /opt/sming/Sming/compiler/lib//libsming.a(stringconversion.o)
 .literal.ltoa  0x0000000000000000        0x0 /opt/sming/Sming/compiler/lib//libsming.a(stringconversion.o)
 .literal.ultoa_wp
                0x0000000000000000        0x0 /opt/sming/Sming/compiler/lib//libsming.a(stringconversion.o)
 .literal.ultoa_w
                0x0000000000000000        0x0 /opt/sming/Sming/compiler/lib//libsming.a(stringconversion.o)
 .literal.ultoa
                0x0000000000000000        0x0 /opt/sming/Sming/compiler/lib//libsming.a(stringconversion.o)
 .literal.dtostrf
                0x0000000000000000        0x0 /opt/sming/Sming/compiler/lib//libsming.a(stringconversion.o)
 .text          0x0000000000000000        0x0 /opt/sming/Sming/compiler/lib//libsming.a(stringconversion.o)
 .data          0x0000000000000000        0x0 /opt/sming/Sming/compiler/lib//libsming.a(stringconversion.o)
 .bss           0x0000000000000000        0x0 /opt/sming/Sming/compiler/lib//libsming.a(stringconversion.o)
 .xt.lit        0x0000000000000000       0x30 /opt/sming/Sming/compiler/lib//libsming.a(stringconversion.o)
 .xt.prop       0x0000000000000000      0x2dc /opt/sming/Sming/compiler/lib//libsming.a(stringconversion.o)
 .group         0x0000000000000000       0x14 /opt/sming/Sming/compiler/lib//libsming.a(IPAddress.o)
 .group         0x0000000000000000        0xc /opt/sming/Sming/compiler/lib//libsming.a(IPAddress.o)
 .group         0x0000000000000000        0xc /opt/sming/Sming/compiler/lib//libsming.a(IPAddress.o)
 .literal._ZNK9IPAddress7printToER5Print
                0x0000000000000000        0x0 /opt/sming/Sming/compiler/lib//libsming.a(IPAddress.o)
 .literal._ZN17ESP01_DescriptionC5Ev
                0x0000000000000000        0x0 /opt/sming/Sming/compiler/lib//libsming.a(IPAddress.o)
 .literal._ZN9IPAddressC2Ev
                0x0000000000000000        0x0 /opt/sming/Sming/compiler/lib//libsming.a(IPAddress.o)
 .literal._ZN9IPAddressC2Ehhhh
                0x0000000000000000        0x0 /opt/sming/Sming/compiler/lib//libsming.a(IPAddress.o)
 .literal._ZN9IPAddressC2Ej
                0x0000000000000000        0x0 /opt/sming/Sming/compiler/lib//libsming.a(IPAddress.o)
 .literal._ZN9IPAddressC2E7ip_addr
                0x0000000000000000        0x0 /opt/sming/Sming/compiler/lib//libsming.a(IPAddress.o)
 .literal._ZN9IPAddressC2EPKh
                0x0000000000000000        0x0 /opt/sming/Sming/compiler/lib//libsming.a(IPAddress.o)
 .literal._ZN9IPAddress10fromStringERK6String
                0x0000000000000000        0x0 /opt/sming/Sming/compiler/lib//libsming.a(IPAddress.o)
 .literal._ZN9IPAddressC2E6String
                0x0000000000000000        0x0 /opt/sming/Sming/compiler/lib//libsming.a(IPAddress.o)
 .literal._ZN9IPAddressaSEPKh
                0x0000000000000000        0x0 /opt/sming/Sming/compiler/lib//libsming.a(IPAddress.o)
 .literal._ZN9IPAddressaSEj
                0x0000000000000000        0x0 /opt/sming/Sming/compiler/lib//libsming.a(IPAddress.o)
 .literal._ZN9IPAddressaSE6String
                0x0000000000000000        0x0 /opt/sming/Sming/compiler/lib//libsming.a(IPAddress.o)
 .literal._ZN9IPAddresseqEPKh
                0x0000000000000000        0x0 /opt/sming/Sming/compiler/lib//libsming.a(IPAddress.o)
 .literal._ZN9IPAddress8toStringEv
                0x0000000000000000        0x0 /opt/sming/Sming/compiler/lib//libsming.a(IPAddress.o)
 .literal.startup._GLOBAL__sub_I__ZN9IPAddressC2Ev
                0x0000000000000000        0x0 /opt/sming/Sming/compiler/lib//libsming.a(IPAddress.o)
 .text          0x0000000000000000        0x0 /opt/sming/Sming/compiler/lib//libsming.a(IPAddress.o)
 .data          0x0000000000000000        0x0 /opt/sming/Sming/compiler/lib//libsming.a(IPAddress.o)
 .bss           0x0000000000000000        0x0 /opt/sming/Sming/compiler/lib//libsming.a(IPAddress.o)
 .text._ZN17ESP01_DescriptionC2Ev
                0x0000000000000000       0x3f /opt/sming/Sming/compiler/lib//libsming.a(IPAddress.o)
 .text._ZN9IPAddressC2Ev
                0x0000000000000000       0x25 /opt/sming/Sming/compiler/lib//libsming.a(IPAddress.o)
 .text._ZN9IPAddressC2Ej
                0x0000000000000000       0x28 /opt/sming/Sming/compiler/lib//libsming.a(IPAddress.o)
 .text._ZN9IPAddressC2E7ip_addr
                0x0000000000000000       0x28 /opt/sming/Sming/compiler/lib//libsming.a(IPAddress.o)
 .text._ZN9IPAddressC2EPKh
                0x0000000000000000       0x25 /opt/sming/Sming/compiler/lib//libsming.a(IPAddress.o)
 .rodata.str1.1
                0x0000000000000000       0x10 /opt/sming/Sming/compiler/lib//libsming.a(IPAddress.o)
 .text._ZN9IPAddress10fromStringERK6String
                0x0000000000000000       0xbb /opt/sming/Sming/compiler/lib//libsming.a(IPAddress.o)
 .text._ZN9IPAddressC2E6String
                0x0000000000000000       0x1f /opt/sming/Sming/compiler/lib//libsming.a(IPAddress.o)
 .text._ZN9IPAddressaSEPKh
                0x0000000000000000       0x1a /opt/sming/Sming/compiler/lib//libsming.a(IPAddress.o)
 .text._ZN9IPAddressaSEj
                0x0000000000000000       0x1d /opt/sming/Sming/compiler/lib//libsming.a(IPAddress.o)
 .text._ZN9IPAddressaSE6String
                0x0000000000000000       0x1f /opt/sming/Sming/compiler/lib//libsming.a(IPAddress.o)
 .text._ZN9IPAddresseqEPKh
                0x0000000000000000       0x28 /opt/sming/Sming/compiler/lib//libsming.a(IPAddress.o)
 .text._ZN9IPAddress8toStringEv
                0x0000000000000000       0x65 /opt/sming/Sming/compiler/lib//libsming.a(IPAddress.o)
 .rodata._ZTV9Printable
                0x0000000000000000        0xc /opt/sming/Sming/compiler/lib//libsming.a(IPAddress.o)
 .rodata._ZL14EspDigitalPins
                0x0000000000000000       0xc0 /opt/sming/Sming/compiler/lib//libsming.a(IPAddress.o)
 .xt.lit        0x0000000000000000       0x60 /opt/sming/Sming/compiler/lib//libsming.a(IPAddress.o)
 .xt.lit._ZN17ESP01_DescriptionC2Ev
                0x0000000000000000        0x8 /opt/sming/Sming/compiler/lib//libsming.a(IPAddress.o)
 .xt.prop       0x0000000000000000      0x2f4 /opt/sming/Sming/compiler/lib//libsming.a(IPAddress.o)
 .xt.prop._ZN17ESP01_DescriptionC2Ev
                0x0000000000000000       0x30 /opt/sming/Sming/compiler/lib//libsming.a(IPAddress.o)
 .xt.prop._ZTV9Printable
                0x0000000000000000        0xc /opt/sming/Sming/compiler/lib//libsming.a(IPAddress.o)
 .group         0x0000000000000000       0x14 /opt/sming/Sming/compiler/lib//libsming.a(Print.o)
 .group         0x0000000000000000        0xc /opt/sming/Sming/compiler/lib//libsming.a(Print.o)
 .literal._ZN5Print5writeEPKhj
                0x0000000000000000        0x0 /opt/sming/Sming/compiler/lib//libsming.a(Print.o)
 .literal._ZN5Print5printEc
                0x0000000000000000        0x0 /opt/sming/Sming/compiler/lib//libsming.a(Print.o)
 .literal._ZN5Print5printEPKc
                0x0000000000000000        0x0 /opt/sming/Sming/compiler/lib//libsming.a(Print.o)
 .literal._ZN5Print5printERK9Printable
                0x0000000000000000        0x0 /opt/sming/Sming/compiler/lib//libsming.a(Print.o)
 .literal._ZN5Print5printERK6String
                0x0000000000000000        0x0 /opt/sming/Sming/compiler/lib//libsming.a(Print.o)
 .literal._ZN5Print7printlnEv
                0x0000000000000000        0x0 /opt/sming/Sming/compiler/lib//libsming.a(Print.o)
 .literal._ZN5Print7printlnERK6String
                0x0000000000000000        0x0 /opt/sming/Sming/compiler/lib//libsming.a(Print.o)
 .literal._ZN5Print7printlnEc
                0x0000000000000000        0x0 /opt/sming/Sming/compiler/lib//libsming.a(Print.o)
 .literal._ZN5Print7printlnEPKc
                0x0000000000000000        0x0 /opt/sming/Sming/compiler/lib//libsming.a(Print.o)
 .literal._ZN5Print7printlnERK9Printable
                0x0000000000000000        0x0 /opt/sming/Sming/compiler/lib//libsming.a(Print.o)
 .literal._ZN5Print6printfEPKcz
                0x0000000000000000        0x0 /opt/sming/Sming/compiler/lib//libsming.a(Print.o)
 .literal._ZN5Print11printNumberEmh
                0x0000000000000000        0x0 /opt/sming/Sming/compiler/lib//libsming.a(Print.o)
 .literal._ZN5Print5printEmi
                0x0000000000000000        0x0 /opt/sming/Sming/compiler/lib//libsming.a(Print.o)
 .literal._ZN5Print5printEji
                0x0000000000000000        0x0 /opt/sming/Sming/compiler/lib//libsming.a(Print.o)
 .literal._ZN5Print7printlnEji
                0x0000000000000000        0x0 /opt/sming/Sming/compiler/lib//libsming.a(Print.o)
 .literal._ZN5Print5printEhi
                0x0000000000000000        0x0 /opt/sming/Sming/compiler/lib//libsming.a(Print.o)
 .literal._ZN5Print7printlnEhi
                0x0000000000000000        0x0 /opt/sming/Sming/compiler/lib//libsming.a(Print.o)
 .literal._ZN5Print7printlnEmi
                0x0000000000000000        0x0 /opt/sming/Sming/compiler/lib//libsming.a(Print.o)
 .literal._ZN5Print5printEli
                0x0000000000000000        0x0 /opt/sming/Sming/compiler/lib//libsming.a(Print.o)
 .literal._ZN5Print5printEii
                0x0000000000000000        0x0 /opt/sming/Sming/compiler/lib//libsming.a(Print.o)
 .literal._ZN5Print7printlnEii
                0x0000000000000000        0x0 /opt/sming/Sming/compiler/lib//libsming.a(Print.o)
 .literal._ZN5Print7printlnEli
                0x0000000000000000        0x0 /opt/sming/Sming/compiler/lib//libsming.a(Print.o)
 .literal._ZN5Print10printFloatEdh
                0x0000000000000000        0x0 /opt/sming/Sming/compiler/lib//libsming.a(Print.o)
 .literal._ZN5Print5printEdi
                0x0000000000000000        0x0 /opt/sming/Sming/compiler/lib//libsming.a(Print.o)
 .literal._ZN5Print7printlnEdi
                0x0000000000000000        0x0 /opt/sming/Sming/compiler/lib//libsming.a(Print.o)
 .literal.startup._GLOBAL__sub_I__ZN5Print5writeEPKhj
                0x0000000000000000        0x0 /opt/sming/Sming/compiler/lib//libsming.a(Print.o)
 .text          0x0000000000000000        0x0 /opt/sming/Sming/compiler/lib//libsming.a(Print.o)
 .data          0x0000000000000000        0x0 /opt/sming/Sming/compiler/lib//libsming.a(Print.o)
 .bss           0x0000000000000000        0x0 /opt/sming/Sming/compiler/lib//libsming.a(Print.o)
 .text._ZN5Print5writeEPKhj
                0x0000000000000000       0x3c /opt/sming/Sming/compiler/lib//libsming.a(Print.o)
 .text._ZN5Print5printEPKc
                0x0000000000000000       0x17 /opt/sming/Sming/compiler/lib//libsming.a(Print.o)
 .text._ZN5Print5printERK9Printable
                0x0000000000000000       0x19 /opt/sming/Sming/compiler/lib//libsming.a(Print.o)
 .text._ZN5Print5printERK6String
                0x0000000000000000       0x1b /opt/sming/Sming/compiler/lib//libsming.a(Print.o)
 .text._ZN5Print7printlnEv
                0x0000000000000000       0x35 /opt/sming/Sming/compiler/lib//libsming.a(Print.o)
 .text._ZN5Print7printlnERK6String
                0x0000000000000000       0x31 /opt/sming/Sming/compiler/lib//libsming.a(Print.o)
 .text._ZN5Print7printlnEc
                0x0000000000000000       0x33 /opt/sming/Sming/compiler/lib//libsming.a(Print.o)
 .text._ZN5Print7printlnEPKc
                0x0000000000000000       0x31 /opt/sming/Sming/compiler/lib//libsming.a(Print.o)
 .text._ZN5Print7printlnERK9Printable
                0x0000000000000000       0x31 /opt/sming/Sming/compiler/lib//libsming.a(Print.o)
 .text._ZN5Print6printfEPKcz
                0x0000000000000000       0x95 /opt/sming/Sming/compiler/lib//libsming.a(Print.o)
 .text._ZN5Print5printEji
                0x0000000000000000       0x17 /opt/sming/Sming/compiler/lib//libsming.a(Print.o)
 .text._ZN5Print7printlnEji
                0x0000000000000000       0x31 /opt/sming/Sming/compiler/lib//libsming.a(Print.o)
 .text._ZN5Print7printlnEhi
                0x0000000000000000       0x33 /opt/sming/Sming/compiler/lib//libsming.a(Print.o)
 .text._ZN5Print7printlnEmi
                0x0000000000000000       0x31 /opt/sming/Sming/compiler/lib//libsming.a(Print.o)
 .text._ZN5Print5printEli
                0x0000000000000000       0x67 /opt/sming/Sming/compiler/lib//libsming.a(Print.o)
 .text._ZN5Print5printEii
                0x0000000000000000       0x17 /opt/sming/Sming/compiler/lib//libsming.a(Print.o)
 .text._ZN5Print7printlnEii
                0x0000000000000000       0x31 /opt/sming/Sming/compiler/lib//libsming.a(Print.o)
 .text._ZN5Print7printlnEli
                0x0000000000000000       0x31 /opt/sming/Sming/compiler/lib//libsming.a(Print.o)
 .rodata.str1.1
                0x0000000000000000        0xe /opt/sming/Sming/compiler/lib//libsming.a(Print.o)
 .text._ZN5Print10printFloatEdh
                0x0000000000000000      0x217 /opt/sming/Sming/compiler/lib//libsming.a(Print.o)
 .text._ZN5Print5printEdi
                0x0000000000000000       0x19 /opt/sming/Sming/compiler/lib//libsming.a(Print.o)
 .text._ZN5Print7printlnEdi
                0x0000000000000000       0x31 /opt/sming/Sming/compiler/lib//libsming.a(Print.o)
 .rodata._ZTV5Print
                0x0000000000000000       0x10 /opt/sming/Sming/compiler/lib//libsming.a(Print.o)
 .xt.lit        0x0000000000000000       0xb0 /opt/sming/Sming/compiler/lib//libsming.a(Print.o)
 .xt.prop       0x0000000000000000      0x630 /opt/sming/Sming/compiler/lib//libsming.a(Print.o)
 .xt.prop._ZTV5Print
                0x0000000000000000        0xc /opt/sming/Sming/compiler/lib//libsming.a(Print.o)
 .literal._ZN6StringD2Ev
                0x0000000000000000        0x0 /opt/sming/Sming/compiler/lib//libsming.a(WString.o)
 .iram.literal  0x0000000000000000        0x0 /opt/sming/Sming/compiler/lib//libsming.a(WString.o)
 .literal._ZN6String7reserveEj
                0x0000000000000000        0x0 /opt/sming/Sming/compiler/lib//libsming.a(WString.o)
 .literal._ZN6String4copyEPKcj
                0x0000000000000000        0x0 /opt/sming/Sming/compiler/lib//libsming.a(WString.o)
 .literal._ZN6String9setStringEPKci
                0x0000000000000000        0x0 /opt/sming/Sming/compiler/lib//libsming.a(WString.o)
 .literal._ZN6String4moveERS_
                0x0000000000000000        0x0 /opt/sming/Sming/compiler/lib//libsming.a(WString.o)
 .literal._ZN6StringaSEOS_
                0x0000000000000000        0x0 /opt/sming/Sming/compiler/lib//libsming.a(WString.o)
 .literal._ZN6StringaSEO15StringSumHelper
                0x0000000000000000        0x0 /opt/sming/Sming/compiler/lib//libsming.a(WString.o)
 .literal._ZN6StringC2Ec
                0x0000000000000000        0x0 /opt/sming/Sming/compiler/lib//libsming.a(WString.o)
 .literal._ZN6StringC2Ehh
                0x0000000000000000        0x0 /opt/sming/Sming/compiler/lib//libsming.a(WString.o)
 .literal._ZN6StringC2Eih
                0x0000000000000000        0x0 /opt/sming/Sming/compiler/lib//libsming.a(WString.o)
 .literal._ZN6StringC2Ejh
                0x0000000000000000        0x0 /opt/sming/Sming/compiler/lib//libsming.a(WString.o)
 .literal._ZN6StringC2Elh
                0x0000000000000000        0x0 /opt/sming/Sming/compiler/lib//libsming.a(WString.o)
 .literal._ZN6StringC2Emh
                0x0000000000000000        0x0 /opt/sming/Sming/compiler/lib//libsming.a(WString.o)
 .literal._ZN6StringC2Efh
                0x0000000000000000        0x0 /opt/sming/Sming/compiler/lib//libsming.a(WString.o)
 .literal._ZN6StringC2Edh
                0x0000000000000000        0x0 /opt/sming/Sming/compiler/lib//libsming.a(WString.o)
 .literal._ZN6String6concatERKS_
                0x0000000000000000        0x0 /opt/sming/Sming/compiler/lib//libsming.a(WString.o)
 .literal._ZN6String6concatEPKc
                0x0000000000000000        0x0 /opt/sming/Sming/compiler/lib//libsming.a(WString.o)
 .literal._ZN6String6concatEc
                0x0000000000000000        0x0 /opt/sming/Sming/compiler/lib//libsming.a(WString.o)
 .literal._ZN6String6concatEh
                0x0000000000000000        0x0 /opt/sming/Sming/compiler/lib//libsming.a(WString.o)
 .literal._ZN6String6concatEi
                0x0000000000000000        0x0 /opt/sming/Sming/compiler/lib//libsming.a(WString.o)
 .literal._ZN6String6concatEj
                0x0000000000000000        0x0 /opt/sming/Sming/compiler/lib//libsming.a(WString.o)
 .literal._ZN6String6concatEl
                0x0000000000000000        0x0 /opt/sming/Sming/compiler/lib//libsming.a(WString.o)
 .literal._ZN6String6concatEm
                0x0000000000000000        0x0 /opt/sming/Sming/compiler/lib//libsming.a(WString.o)
 .literal._ZN6String6concatEf
                0x0000000000000000        0x0 /opt/sming/Sming/compiler/lib//libsming.a(WString.o)
 .literal._ZN6String6concatEd
                0x0000000000000000        0x0 /opt/sming/Sming/compiler/lib//libsming.a(WString.o)
 .literal._ZplRK15StringSumHelperRK6String
                0x0000000000000000        0x0 /opt/sming/Sming/compiler/lib//libsming.a(WString.o)
 .literal._ZplRK15StringSumHelperPKc
                0x0000000000000000        0x0 /opt/sming/Sming/compiler/lib//libsming.a(WString.o)
 .literal._ZplRK15StringSumHelperc
                0x0000000000000000        0x0 /opt/sming/Sming/compiler/lib//libsming.a(WString.o)
 .literal._ZplRK15StringSumHelperh
                0x0000000000000000        0x0 /opt/sming/Sming/compiler/lib//libsming.a(WString.o)
 .literal._ZplRK15StringSumHelperi
                0x0000000000000000        0x0 /opt/sming/Sming/compiler/lib//libsming.a(WString.o)
 .literal._ZplRK15StringSumHelperj
                0x0000000000000000        0x0 /opt/sming/Sming/compiler/lib//libsming.a(WString.o)
 .literal._ZplRK15StringSumHelperl
                0x0000000000000000        0x0 /opt/sming/Sming/compiler/lib//libsming.a(WString.o)
 .literal._ZplRK15StringSumHelperm
                0x0000000000000000        0x0 /opt/sming/Sming/compiler/lib//libsming.a(WString.o)
 .literal._ZplRK15StringSumHelperf
                0x0000000000000000        0x0 /opt/sming/Sming/compiler/lib//libsming.a(WString.o)
 .literal._ZplRK15StringSumHelperd
                0x0000000000000000        0x0 /opt/sming/Sming/compiler/lib//libsming.a(WString.o)
 .literal._ZNK6StringltERKS_
                0x0000000000000000        0x0 /opt/sming/Sming/compiler/lib//libsming.a(WString.o)
 .literal._ZNK6StringgtERKS_
                0x0000000000000000        0x0 /opt/sming/Sming/compiler/lib//libsming.a(WString.o)
 .literal._ZNK6StringleERKS_
                0x0000000000000000        0x0 /opt/sming/Sming/compiler/lib//libsming.a(WString.o)
 .literal._ZNK6StringgeERKS_
                0x0000000000000000        0x0 /opt/sming/Sming/compiler/lib//libsming.a(WString.o)
 .literal._ZNK6String16equalsIgnoreCaseERKS_
                0x0000000000000000        0x0 /opt/sming/Sming/compiler/lib//libsming.a(WString.o)
 .literal._ZNK6String10startsWithERKS_j
                0x0000000000000000        0x0 /opt/sming/Sming/compiler/lib//libsming.a(WString.o)
 .literal._ZNK6String10startsWithERKS_
                0x0000000000000000        0x0 /opt/sming/Sming/compiler/lib//libsming.a(WString.o)
 .literal._ZNK6String8endsWithERKS_
                0x0000000000000000        0x0 /opt/sming/Sming/compiler/lib//libsming.a(WString.o)
 .literal._ZNK6String8getBytesEPhjj
                0x0000000000000000        0x0 /opt/sming/Sming/compiler/lib//libsming.a(WString.o)
 .literal._ZNK6String7indexOfEcj
                0x0000000000000000        0x0 /opt/sming/Sming/compiler/lib//libsming.a(WString.o)
 .literal._ZNK6String7indexOfERKS_j
                0x0000000000000000        0x0 /opt/sming/Sming/compiler/lib//libsming.a(WString.o)
 .literal._ZNK6String11lastIndexOfEci
                0x0000000000000000        0x0 /opt/sming/Sming/compiler/lib//libsming.a(WString.o)
 .literal._ZNK6String11lastIndexOfEc
                0x0000000000000000        0x0 /opt/sming/Sming/compiler/lib//libsming.a(WString.o)
 .literal._ZNK6String11lastIndexOfERKS_i
                0x0000000000000000        0x0 /opt/sming/Sming/compiler/lib//libsming.a(WString.o)
 .literal._ZNK6String11lastIndexOfERKS_
                0x0000000000000000        0x0 /opt/sming/Sming/compiler/lib//libsming.a(WString.o)
 .literal._ZNK6String9substringEjj
                0x0000000000000000        0x0 /opt/sming/Sming/compiler/lib//libsming.a(WString.o)
 .literal._ZN6String7replaceEcc
                0x0000000000000000        0x0 /opt/sming/Sming/compiler/lib//libsming.a(WString.o)
 .literal._ZN6String7replaceERKS_S1_
                0x0000000000000000        0x0 /opt/sming/Sming/compiler/lib//libsming.a(WString.o)
 .literal._ZN6String6removeEjj
                0x0000000000000000        0x0 /opt/sming/Sming/compiler/lib//libsming.a(WString.o)
 .literal._ZN6String6removeEj
                0x0000000000000000        0x0 /opt/sming/Sming/compiler/lib//libsming.a(WString.o)
 .literal._ZN6String11toLowerCaseEv
                0x0000000000000000        0x0 /opt/sming/Sming/compiler/lib//libsming.a(WString.o)
 .literal._ZN6String11toUpperCaseEv
                0x0000000000000000        0x0 /opt/sming/Sming/compiler/lib//libsming.a(WString.o)
 .literal._ZN6String4trimEv
                0x0000000000000000        0x0 /opt/sming/Sming/compiler/lib//libsming.a(WString.o)
 .literal._ZNK6String5toIntEv
                0x0000000000000000        0x0 /opt/sming/Sming/compiler/lib//libsming.a(WString.o)
 .literal._ZNK6String7toFloatEv
                0x0000000000000000        0x0 /opt/sming/Sming/compiler/lib//libsming.a(WString.o)
 .literal.startup._GLOBAL__sub_I__ZN6StringC2EPKc
                0x0000000000000000        0x0 /opt/sming/Sming/compiler/lib//libsming.a(WString.o)
 .text          0x0000000000000000        0x0 /opt/sming/Sming/compiler/lib//libsming.a(WString.o)
 .data          0x0000000000000000        0x0 /opt/sming/Sming/compiler/lib//libsming.a(WString.o)
 .bss           0x0000000000000000        0x0 /opt/sming/Sming/compiler/lib//libsming.a(WString.o)
 .text._ZN6StringD2Ev
                0x0000000000000000       0x18 /opt/sming/Sming/compiler/lib//libsming.a(WString.o)
 .iram.text     0x0000000000000000      0x330 /opt/sming/Sming/compiler/lib//libsming.a(WString.o)
 .text._ZN6String7reserveEj
                0x0000000000000000       0x39 /opt/sming/Sming/compiler/lib//libsming.a(WString.o)
 .text._ZN6String4copyEPKcj
                0x0000000000000000       0x5c /opt/sming/Sming/compiler/lib//libsming.a(WString.o)
 .text._ZN6String9setStringEPKci
                0x0000000000000000       0x35 /opt/sming/Sming/compiler/lib//libsming.a(WString.o)
 .text._ZN6String4moveERS_
                0x0000000000000000       0x41 /opt/sming/Sming/compiler/lib//libsming.a(WString.o)
 .text._ZN6StringaSEOS_
                0x0000000000000000       0x21 /opt/sming/Sming/compiler/lib//libsming.a(WString.o)
 .text._ZN6StringaSEO15StringSumHelper
                0x0000000000000000       0x21 /opt/sming/Sming/compiler/lib//libsming.a(WString.o)
 .text._ZN6StringC2Ec
                0x0000000000000000       0x28 /opt/sming/Sming/compiler/lib//libsming.a(WString.o)
 .text._ZN6StringC2Ehh
                0x0000000000000000       0x3d /opt/sming/Sming/compiler/lib//libsming.a(WString.o)
 .text._ZN6StringC2Eih
                0x0000000000000000       0x3b /opt/sming/Sming/compiler/lib//libsming.a(WString.o)
 .text._ZN6StringC2Ejh
                0x0000000000000000       0x3b /opt/sming/Sming/compiler/lib//libsming.a(WString.o)
 .text._ZN6StringC2Elh
                0x0000000000000000       0x3b /opt/sming/Sming/compiler/lib//libsming.a(WString.o)
 .text._ZN6StringC2Emh
                0x0000000000000000       0x3b /opt/sming/Sming/compiler/lib//libsming.a(WString.o)
 .text._ZN6StringC2Efh
                0x0000000000000000       0x51 /opt/sming/Sming/compiler/lib//libsming.a(WString.o)
 .text._ZN6StringC2Edh
                0x0000000000000000       0x3f /opt/sming/Sming/compiler/lib//libsming.a(WString.o)
 .text._ZN6String6concatERKS_
                0x0000000000000000       0x1d /opt/sming/Sming/compiler/lib//libsming.a(WString.o)
 .text._ZN6String6concatEPKc
                0x0000000000000000       0x35 /opt/sming/Sming/compiler/lib//libsming.a(WString.o)
 .text._ZN6String6concatEc
                0x0000000000000000       0x23 /opt/sming/Sming/compiler/lib//libsming.a(WString.o)
 .text._ZN6String6concatEh
                0x0000000000000000       0x3f /opt/sming/Sming/compiler/lib//libsming.a(WString.o)
 .text._ZN6String6concatEi
                0x0000000000000000       0x3e /opt/sming/Sming/compiler/lib//libsming.a(WString.o)
 .text._ZN6String6concatEj
                0x0000000000000000       0x3e /opt/sming/Sming/compiler/lib//libsming.a(WString.o)
 .text._ZN6String6concatEl
                0x0000000000000000       0x3e /opt/sming/Sming/compiler/lib//libsming.a(WString.o)
 .text._ZN6String6concatEm
                0x0000000000000000       0x3e /opt/sming/Sming/compiler/lib//libsming.a(WString.o)
 .text._ZN6String6concatEf
                0x0000000000000000       0x4f /opt/sming/Sming/compiler/lib//libsming.a(WString.o)
 .text._ZN6String6concatEd
                0x0000000000000000       0x47 /opt/sming/Sming/compiler/lib//libsming.a(WString.o)
 .text._ZplRK15StringSumHelperRK6String
                0x0000000000000000       0x33 /opt/sming/Sming/compiler/lib//libsming.a(WString.o)
 .text._ZplRK15StringSumHelperPKc
                0x0000000000000000       0x43 /opt/sming/Sming/compiler/lib//libsming.a(WString.o)
 .text._ZplRK15StringSumHelperc
                0x0000000000000000       0x2f /opt/sming/Sming/compiler/lib//libsming.a(WString.o)
 .text._ZplRK15StringSumHelperh
                0x0000000000000000       0x2f /opt/sming/Sming/compiler/lib//libsming.a(WString.o)
 .text._ZplRK15StringSumHelperi
                0x0000000000000000       0x2d /opt/sming/Sming/compiler/lib//libsming.a(WString.o)
 .text._ZplRK15StringSumHelperj
                0x0000000000000000       0x2d /opt/sming/Sming/compiler/lib//libsming.a(WString.o)
 .text._ZplRK15StringSumHelperl
                0x0000000000000000       0x2d /opt/sming/Sming/compiler/lib//libsming.a(WString.o)
 .text._ZplRK15StringSumHelperm
                0x0000000000000000       0x2d /opt/sming/Sming/compiler/lib//libsming.a(WString.o)
 .text._ZplRK15StringSumHelperf
                0x0000000000000000       0x2d /opt/sming/Sming/compiler/lib//libsming.a(WString.o)
 .text._ZplRK15StringSumHelperd
                0x0000000000000000       0x2d /opt/sming/Sming/compiler/lib//libsming.a(WString.o)
 .text._ZNK6StringltERKS_
                0x0000000000000000       0x1a /opt/sming/Sming/compiler/lib//libsming.a(WString.o)
 .text._ZNK6StringgtERKS_
                0x0000000000000000       0x20 /opt/sming/Sming/compiler/lib//libsming.a(WString.o)
 .text._ZNK6StringleERKS_
                0x0000000000000000       0x1f /opt/sming/Sming/compiler/lib//libsming.a(WString.o)
 .text._ZNK6StringgeERKS_
                0x0000000000000000       0x1f /opt/sming/Sming/compiler/lib//libsming.a(WString.o)
 .text._ZNK6String16equalsIgnoreCaseERKS_
                0x0000000000000000       0x65 /opt/sming/Sming/compiler/lib//libsming.a(WString.o)
 .text._ZNK6String10startsWithERKS_j
                0x0000000000000000       0x40 /opt/sming/Sming/compiler/lib//libsming.a(WString.o)
 .text._ZNK6String10startsWithERKS_
                0x0000000000000000       0x25 /opt/sming/Sming/compiler/lib//libsming.a(WString.o)
 .text._ZNK6String8endsWithERKS_
                0x0000000000000000       0x3f /opt/sming/Sming/compiler/lib//libsming.a(WString.o)
 .text._ZNK6String8getBytesEPhjj
                0x0000000000000000       0x57 /opt/sming/Sming/compiler/lib//libsming.a(WString.o)
 .text._ZNK6String7indexOfEcj
                0x0000000000000000       0x39 /opt/sming/Sming/compiler/lib//libsming.a(WString.o)
 .text._ZNK6String7indexOfERKS_j
                0x0000000000000000       0x35 /opt/sming/Sming/compiler/lib//libsming.a(WString.o)
 .text._ZNK6String11lastIndexOfEci
                0x0000000000000000       0x5a /opt/sming/Sming/compiler/lib//libsming.a(WString.o)
 .text._ZNK6String11lastIndexOfEc
                0x0000000000000000       0x1f /opt/sming/Sming/compiler/lib//libsming.a(WString.o)
 .text._ZNK6String11lastIndexOfERKS_i
                0x0000000000000000       0x6d /opt/sming/Sming/compiler/lib//libsming.a(WString.o)
 .text._ZNK6String11lastIndexOfERKS_
                0x0000000000000000       0x1f /opt/sming/Sming/compiler/lib//libsming.a(WString.o)
 .rodata.str1.1
                0x0000000000000000        0x1 /opt/sming/Sming/compiler/lib//libsming.a(WString.o)
 .text._ZNK6String9substringEjj
                0x0000000000000000       0x75 /opt/sming/Sming/compiler/lib//libsming.a(WString.o)
 .text._ZN6String7replaceEcc
                0x0000000000000000       0x1c /opt/sming/Sming/compiler/lib//libsming.a(WString.o)
 .text._ZN6String7replaceERKS_S1_
                0x0000000000000000      0x19b /opt/sming/Sming/compiler/lib//libsming.a(WString.o)
 .text._ZN6String6removeEjj
                0x0000000000000000       0x4f /opt/sming/Sming/compiler/lib//libsming.a(WString.o)
 .text._ZN6String6removeEj
                0x0000000000000000       0x21 /opt/sming/Sming/compiler/lib//libsming.a(WString.o)
 .text._ZN6String11toLowerCaseEv
                0x0000000000000000       0x2f /opt/sming/Sming/compiler/lib//libsming.a(WString.o)
 .text._ZN6String11toUpperCaseEv
                0x0000000000000000       0x2f /opt/sming/Sming/compiler/lib//libsming.a(WString.o)
 .text._ZN6String4trimEv
                0x0000000000000000       0x8b /opt/sming/Sming/compiler/lib//libsming.a(WString.o)
 .text._ZNK6String5toIntEv
                0x0000000000000000       0x1f /opt/sming/Sming/compiler/lib//libsming.a(WString.o)
 .text._ZNK6String7toFloatEv
                0x0000000000000000       0x2d /opt/sming/Sming/compiler/lib//libsming.a(WString.o)
 .bss._ZZN6StringixEjE19dummy_writable_char
                0x0000000000000000        0x1 /opt/sming/Sming/compiler/lib//libsming.a(WString.o)
 .xt.lit        0x0000000000000000      0x250 /opt/sming/Sming/compiler/lib//libsming.a(WString.o)
 .xt.prop       0x0000000000000000     0x12cc /opt/sming/Sming/compiler/lib//libsming.a(WString.o)
 .group         0x0000000000000000       0x10 /opt/sming/Sming/compiler/lib//libsming.a(Interrupts.o)
 .group         0x0000000000000000       0x10 /opt/sming/Sming/compiler/lib//libsming.a(Interrupts.o)
 .iram.literal  0x0000000000000000        0x0 /opt/sming/Sming/compiler/lib//libsming.a(Interrupts.o)
 .literal._Z41__static_initialization_and_destruction_0ii$part$0
                0x0000000000000000        0x0 /opt/sming/Sming/compiler/lib//libsming.a(Interrupts.o)
 .literal._Z22attachInterruptHandlerh13GPIO_INT_TYPE
                0x0000000000000000        0x0 /opt/sming/Sming/compiler/lib//libsming.a(Interrupts.o)
 .literal._Z13interruptModeh13GPIO_INT_TYPE
                0x0000000000000000        0x0 /opt/sming/Sming/compiler/lib//libsming.a(Interrupts.o)
 .literal._Z13interruptModehh
                0x0000000000000000        0x0 /opt/sming/Sming/compiler/lib//libsming.a(Interrupts.o)
 .literal._Z27ConvertArduinoInterruptModeh
                0x0000000000000000        0x0 /opt/sming/Sming/compiler/lib//libsming.a(Interrupts.o)
 .literal._Z12noInterruptsv
                0x0000000000000000        0x0 /opt/sming/Sming/compiler/lib//libsming.a(Interrupts.o)
 .literal._Z10interruptsv
                0x0000000000000000        0x0 /opt/sming/Sming/compiler/lib//libsming.a(Interrupts.o)
 .literal._ZN8DelegateIFvvEEaSEOS1_
                0x0000000000000000        0x0 /opt/sming/Sming/compiler/lib//libsming.a(Interrupts.o)
 .literal._Z15attachInterrupthPFvvE13GPIO_INT_TYPE
                0x0000000000000000        0x0 /opt/sming/Sming/compiler/lib//libsming.a(Interrupts.o)
 .literal._Z15attachInterrupthPFvvEh
                0x0000000000000000        0x0 /opt/sming/Sming/compiler/lib//libsming.a(Interrupts.o)
 .literal._Z15detachInterrupth
                0x0000000000000000        0x0 /opt/sming/Sming/compiler/lib//libsming.a(Interrupts.o)
 .literal._Z15attachInterrupth8DelegateIFvvEE13GPIO_INT_TYPE
                0x0000000000000000        0x0 /opt/sming/Sming/compiler/lib//libsming.a(Interrupts.o)
 .literal._Z15attachInterrupth8DelegateIFvvEEh
                0x0000000000000000        0x0 /opt/sming/Sming/compiler/lib//libsming.a(Interrupts.o)
 .literal.startup._GLOBAL__sub_I__gpioInterruptsList
                0x0000000000000000        0x0 /opt/sming/Sming/compiler/lib//libsming.a(Interrupts.o)
 .literal.exit._GLOBAL__sub_D__gpioInterruptsList
                0x0000000000000000        0x0 /opt/sming/Sming/compiler/lib//libsming.a(Interrupts.o)
 .text          0x0000000000000000        0x0 /opt/sming/Sming/compiler/lib//libsming.a(Interrupts.o)
 .data          0x0000000000000000        0x0 /opt/sming/Sming/compiler/lib//libsming.a(Interrupts.o)
 .bss           0x0000000000000000        0x0 /opt/sming/Sming/compiler/lib//libsming.a(Interrupts.o)
 .iram.text     0x0000000000000000       0x92 /opt/sming/Sming/compiler/lib//libsming.a(Interrupts.o)
 .text._Z22attachInterruptHandlerh13GPIO_INT_TYPE
                0x0000000000000000       0x77 /opt/sming/Sming/compiler/lib//libsming.a(Interrupts.o)
 .text._Z13interruptModeh13GPIO_INT_TYPE
                0x0000000000000000       0x4d /opt/sming/Sming/compiler/lib//libsming.a(Interrupts.o)
 .text._Z13interruptModehh
                0x0000000000000000       0x31 /opt/sming/Sming/compiler/lib//libsming.a(Interrupts.o)
 .text._Z27ConvertArduinoInterruptModeh
                0x0000000000000000       0x18 /opt/sming/Sming/compiler/lib//libsming.a(Interrupts.o)
 .text._Z12noInterruptsv
                0x0000000000000000       0x17 /opt/sming/Sming/compiler/lib//libsming.a(Interrupts.o)
 .text._Z10interruptsv
                0x0000000000000000       0x17 /opt/sming/Sming/compiler/lib//libsming.a(Interrupts.o)
 .text._ZN8DelegateIFvvEEaSEOS1_
                0x0000000000000000       0x3a /opt/sming/Sming/compiler/lib//libsming.a(Interrupts.o)
 .text._Z15attachInterrupthPFvvE13GPIO_INT_TYPE
                0x0000000000000000       0x69 /opt/sming/Sming/compiler/lib//libsming.a(Interrupts.o)
 .text._Z15attachInterrupthPFvvEh
                0x0000000000000000       0x31 /opt/sming/Sming/compiler/lib//libsming.a(Interrupts.o)
 .text._Z15detachInterrupth
                0x0000000000000000       0x5d /opt/sming/Sming/compiler/lib//libsming.a(Interrupts.o)
 .text._Z15attachInterrupth8DelegateIFvvEE13GPIO_INT_TYPE
                0x0000000000000000       0x4f /opt/sming/Sming/compiler/lib//libsming.a(Interrupts.o)
 .text._Z15attachInterrupth8DelegateIFvvEEh
                0x0000000000000000       0x60 /opt/sming/Sming/compiler/lib//libsming.a(Interrupts.o)
 .rodata.CSWTCH$14
                0x0000000000000000       0x21 /opt/sming/Sming/compiler/lib//libsming.a(Interrupts.o)
 .bss._gpioInterruptsInitialied
                0x0000000000000000        0x1 /opt/sming/Sming/compiler/lib//libsming.a(Interrupts.o)
 .bss._gpioInterruptsList
                0x0000000000000000       0x40 /opt/sming/Sming/compiler/lib//libsming.a(Interrupts.o)
 .xt.lit        0x0000000000000000       0x78 /opt/sming/Sming/compiler/lib//libsming.a(Interrupts.o)
 .xt.prop       0x0000000000000000      0x3fc /opt/sming/Sming/compiler/lib//libsming.a(Interrupts.o)
 .xt.prop._ZN8DelegateIFvvEEaSEOS1_
                0x0000000000000000       0x30 /opt/sming/Sming/compiler/lib//libsming.a(Interrupts.o)
 .literal._Z10isInputPint
                0x0000000000000000        0x0 /opt/sming/Sming/compiler/lib//libsming.a(Digital.o)
 .literal._Z11digitalReadt
                0x0000000000000000        0x0 /opt/sming/Sming/compiler/lib//libsming.a(Digital.o)
 .literal._Z6pullupt
                0x0000000000000000        0x0 /opt/sming/Sming/compiler/lib//libsming.a(Digital.o)
 .literal._Z7pinModeth
                0x0000000000000000        0x0 /opt/sming/Sming/compiler/lib//libsming.a(Digital.o)
 .literal._Z8noPullupt
                0x0000000000000000        0x0 /opt/sming/Sming/compiler/lib//libsming.a(Digital.o)
 .literal._Z12digitalWriteth
                0x0000000000000000        0x0 /opt/sming/Sming/compiler/lib//libsming.a(Digital.o)
 .literal._Z7pulseInthm
                0x0000000000000000        0x0 /opt/sming/Sming/compiler/lib//libsming.a(Digital.o)
 .literal.startup._GLOBAL__sub_I__Z7pinModeth
                0x0000000000000000        0x0 /opt/sming/Sming/compiler/lib//libsming.a(Digital.o)
 .text          0x0000000000000000        0x0 /opt/sming/Sming/compiler/lib//libsming.a(Digital.o)
 .data          0x0000000000000000        0x0 /opt/sming/Sming/compiler/lib//libsming.a(Digital.o)
 .bss           0x0000000000000000        0x0 /opt/sming/Sming/compiler/lib//libsming.a(Digital.o)
 .text._Z11digitalReadt
                0x0000000000000000       0x2d /opt/sming/Sming/compiler/lib//libsming.a(Digital.o)
 .text._Z7pulseInthm
                0x0000000000000000       0xf6 /opt/sming/Sming/compiler/lib//libsming.a(Digital.o)
 .xt.lit        0x0000000000000000       0x40 /opt/sming/Sming/compiler/lib//libsming.a(Digital.o)
 .xt.prop       0x0000000000000000      0x378 /opt/sming/Sming/compiler/lib//libsming.a(Digital.o)
 .group         0x0000000000000000       0x14 out/build/app_app.a(application.o)
 .literal._Z5blinkv
                0x0000000000000000        0x0 out/build/app_app.a(application.o)
 .literal._ZN17ESP01_DescriptionC5Ev
                0x0000000000000000        0x0 out/build/app_app.a(application.o)
 .literal._Z4initv
                0x0000000000000000        0x0 out/build/app_app.a(application.o)
 .literal.startup._GLOBAL__sub_I_procTimer
                0x0000000000000000        0x0 out/build/app_app.a(application.o)
 .literal.exit._GLOBAL__sub_D_procTimer
                0x0000000000000000        0x0 out/build/app_app.a(application.o)
 .text          0x0000000000000000        0x0 out/build/app_app.a(application.o)
 .data          0x0000000000000000        0x0 out/build/app_app.a(application.o)
 .bss           0x0000000000000000        0x0 out/build/app_app.a(application.o)
 .text._ZN17ESP01_DescriptionC2Ev
                0x0000000000000000       0x3f out/build/app_app.a(application.o)
 .rodata._ZL14EspDigitalPins
                0x0000000000000000       0xc0 out/build/app_app.a(application.o)
 .xt.lit        0x0000000000000000       0x20 out/build/app_app.a(application.o)
 .xt.lit._ZN17ESP01_DescriptionC2Ev
                0x0000000000000000        0x8 out/build/app_app.a(application.o)
 .xt.prop       0x0000000000000000      0x108 out/build/app_app.a(application.o)
 .xt.prop._ZN17ESP01_DescriptionC2Ev
                0x0000000000000000       0x30 out/build/app_app.a(application.o)
 .irom0.text    0x0000000000000000       0x1c /opt/sming/Sming/compiler/lib//libmicroc.a(isspace.o)
 .data          0x0000000000000000        0x0 /opt/sming/Sming/compiler/lib//libmicroc.a(isspace.o)
 .bss           0x0000000000000000        0x0 /opt/sming/Sming/compiler/lib//libmicroc.a(isspace.o)
 .xt.prop       0x0000000000000000       0x30 /opt/sming/Sming/compiler/lib//libmicroc.a(isspace.o)
 .irom0.text    0x0000000000000000        0xf /opt/sming/Sming/compiler/lib//libmicroc.a(tolower.o)
 .data          0x0000000000000000        0x0 /opt/sming/Sming/compiler/lib//libmicroc.a(tolower.o)
 .bss           0x0000000000000000        0x0 /opt/sming/Sming/compiler/lib//libmicroc.a(tolower.o)
 .xt.prop       0x0000000000000000       0x30 /opt/sming/Sming/compiler/lib//libmicroc.a(tolower.o)
 .irom0.text    0x0000000000000000        0xf /opt/sming/Sming/compiler/lib//libmicroc.a(toupper.o)
 .data          0x0000000000000000        0x0 /opt/sming/Sming/compiler/lib//libmicroc.a(toupper.o)
 .bss           0x0000000000000000        0x0 /opt/sming/Sming/compiler/lib//libmicroc.a(toupper.o)
 .xt.prop       0x0000000000000000       0x30 /opt/sming/Sming/compiler/lib//libmicroc.a(toupper.o)
 .irom0.literal
                0x0000000000000000        0x4 /opt/sming/Sming/compiler/lib//libmicroc.a(atof.o)
 .irom0.text    0x0000000000000000       0x14 /opt/sming/Sming/compiler/lib//libmicroc.a(atof.o)
 .data          0x0000000000000000        0x0 /opt/sming/Sming/compiler/lib//libmicroc.a(atof.o)
 .bss           0x0000000000000000        0x0 /opt/sming/Sming/compiler/lib//libmicroc.a(atof.o)
 .xt.lit        0x0000000000000000        0x8 /opt/sming/Sming/compiler/lib//libmicroc.a(atof.o)
 .xt.prop       0x0000000000000000       0x30 /opt/sming/Sming/compiler/lib//libmicroc.a(atof.o)
 .irom0.text    0x0000000000000000       0x55 /opt/sming/Sming/compiler/lib//libmicroc.a(atoi.o)
 .data          0x0000000000000000        0x0 /opt/sming/Sming/compiler/lib//libmicroc.a(atoi.o)
 .bss           0x0000000000000000        0x0 /opt/sming/Sming/compiler/lib//libmicroc.a(atoi.o)
 .xt.prop       0x0000000000000000       0x60 /opt/sming/Sming/compiler/lib//libmicroc.a(atoi.o)
 .irom0.literal
                0x0000000000000000       0x10 /opt/sming/Sming/compiler/lib//libmicroc.a(strtod.o)
 .irom0.text    0x0000000000000000       0xb1 /opt/sming/Sming/compiler/lib//libmicroc.a(strtod.o)
 .data          0x0000000000000000        0x0 /opt/sming/Sming/compiler/lib//libmicroc.a(strtod.o)
 .bss           0x0000000000000000        0x0 /opt/sming/Sming/compiler/lib//libmicroc.a(strtod.o)
 .xt.lit        0x0000000000000000        0x8 /opt/sming/Sming/compiler/lib//libmicroc.a(strtod.o)
 .xt.prop       0x0000000000000000       0x84 /opt/sming/Sming/compiler/lib//libmicroc.a(strtod.o)
 .irom0.literal
                0x0000000000000000        0x0 /opt/sming/Sming/compiler/lib//libmicroc.a(__fpclassify.o)
 .data          0x0000000000000000        0x0 /opt/sming/Sming/compiler/lib//libmicroc.a(__fpclassify.o)
 .bss           0x0000000000000000        0x0 /opt/sming/Sming/compiler/lib//libmicroc.a(__fpclassify.o)
 .xt.prop       0x0000000000000000       0x6c /opt/sming/Sming/compiler/lib//libmicroc.a(__fpclassify.o)
 .irom0.literal
                0x0000000000000000        0x4 /opt/sming/Sming/compiler/lib//libmicroc.a(strchr.o)
 .irom0.text    0x0000000000000000       0x29 /opt/sming/Sming/compiler/lib//libmicroc.a(strchr.o)
 .data          0x0000000000000000        0x0 /opt/sming/Sming/compiler/lib//libmicroc.a(strchr.o)
 .bss           0x0000000000000000        0x0 /opt/sming/Sming/compiler/lib//libmicroc.a(strchr.o)
 .xt.lit        0x0000000000000000        0x8 /opt/sming/Sming/compiler/lib//libmicroc.a(strchr.o)
 .xt.prop       0x0000000000000000       0x30 /opt/sming/Sming/compiler/lib//libmicroc.a(strchr.o)
 .irom0.literal
                0x0000000000000000        0x4 /opt/sming/Sming/compiler/lib//libmicroc.a(strrchr.o)
 .irom0.text    0x0000000000000000       0x13 /opt/sming/Sming/compiler/lib//libmicroc.a(strrchr.o)
 .data          0x0000000000000000        0x0 /opt/sming/Sming/compiler/lib//libmicroc.a(strrchr.o)
 .bss           0x0000000000000000        0x0 /opt/sming/Sming/compiler/lib//libmicroc.a(strrchr.o)
 .xt.lit        0x0000000000000000        0x8 /opt/sming/Sming/compiler/lib//libmicroc.a(strrchr.o)
 .xt.prop       0x0000000000000000       0x30 /opt/sming/Sming/compiler/lib//libmicroc.a(strrchr.o)
 .irom0.literal
                0x0000000000000000        0xc /opt/sming/Sming/compiler/lib//libmicroc.a(strchrnul.o)
 .irom0.text    0x0000000000000000       0x75 /opt/sming/Sming/compiler/lib//libmicroc.a(strchrnul.o)
 .data          0x0000000000000000        0x0 /opt/sming/Sming/compiler/lib//libmicroc.a(strchrnul.o)
 .bss           0x0000000000000000        0x0 /opt/sming/Sming/compiler/lib//libmicroc.a(strchrnul.o)
 .xt.lit        0x0000000000000000        0x8 /opt/sming/Sming/compiler/lib//libmicroc.a(strchrnul.o)
 .xt.prop       0x0000000000000000       0x90 /opt/sming/Sming/compiler/lib//libmicroc.a(strchrnul.o)
 .data          0x0000000000000000        0x0 /opt/sming/Sming/compiler/lib//libmicroc.a(malloc.o)
 .bss           0x0000000000000000        0x0 /opt/sming/Sming/compiler/lib//libmicroc.a(malloc.o)
 .xt.lit        0x0000000000000000        0x8 /opt/sming/Sming/compiler/lib//libmicroc.a(malloc.o)
 .xt.prop       0x0000000000000000       0x90 /opt/sming/Sming/compiler/lib//libmicroc.a(malloc.o)
 .data          0x0000000000000000        0x0 /opt/sming/Sming/compiler/lib//libmicroc.a(abort.o)
 .bss           0x0000000000000000        0x0 /opt/sming/Sming/compiler/lib//libmicroc.a(abort.o)
 .xt.lit        0x0000000000000000        0x8 /opt/sming/Sming/compiler/lib//libmicroc.a(abort.o)
 .xt.prop       0x0000000000000000       0x30 /opt/sming/Sming/compiler/lib//libmicroc.a(abort.o)
 .irom0.literal
                0x0000000000000000      0x294 /opt/sming/Sming/compiler/lib//libmicroc.a(floatscan.o)
 .irom0.text    0x0000000000000000     0x1320 /opt/sming/Sming/compiler/lib//libmicroc.a(floatscan.o)
 .data          0x0000000000000000        0x0 /opt/sming/Sming/compiler/lib//libmicroc.a(floatscan.o)
 .bss           0x0000000000000000        0x0 /opt/sming/Sming/compiler/lib//libmicroc.a(floatscan.o)
 .rodata.str1.1
                0x0000000000000000        0xd /opt/sming/Sming/compiler/lib//libmicroc.a(floatscan.o)
 .rodata        0x0000000000000000       0x20 /opt/sming/Sming/compiler/lib//libmicroc.a(floatscan.o)
 .xt.lit        0x0000000000000000        0x8 /opt/sming/Sming/compiler/lib//libmicroc.a(floatscan.o)
 .xt.prop       0x0000000000000000      0xd68 /opt/sming/Sming/compiler/lib//libmicroc.a(floatscan.o)
 .irom0.literal
                0x0000000000000000        0x4 /opt/sming/Sming/compiler/lib//libmicroc.a(shgetc.o)
 .irom0.text    0x0000000000000000       0x95 /opt/sming/Sming/compiler/lib//libmicroc.a(shgetc.o)
 .data          0x0000000000000000        0x0 /opt/sming/Sming/compiler/lib//libmicroc.a(shgetc.o)
 .bss           0x0000000000000000        0x0 /opt/sming/Sming/compiler/lib//libmicroc.a(shgetc.o)
 .xt.lit        0x0000000000000000        0x8 /opt/sming/Sming/compiler/lib//libmicroc.a(shgetc.o)
 .xt.prop       0x0000000000000000       0xb4 /opt/sming/Sming/compiler/lib//libmicroc.a(shgetc.o)
 .irom0.literal
                0x0000000000000000        0x4 /opt/sming/Sming/compiler/lib//libmicroc.a(__uflow.o)
 .irom0.text    0x0000000000000000       0x39 /opt/sming/Sming/compiler/lib//libmicroc.a(__uflow.o)
 .data          0x0000000000000000        0x0 /opt/sming/Sming/compiler/lib//libmicroc.a(__uflow.o)
 .bss           0x0000000000000000        0x0 /opt/sming/Sming/compiler/lib//libmicroc.a(__uflow.o)
 .xt.lit        0x0000000000000000        0x8 /opt/sming/Sming/compiler/lib//libmicroc.a(__uflow.o)
 .xt.prop       0x0000000000000000       0x60 /opt/sming/Sming/compiler/lib//libmicroc.a(__uflow.o)
 .irom0.literal
                0x0000000000000000        0x4 /opt/sming/Sming/compiler/lib//libmicroc.a(__toread.o)
 .irom0.text    0x0000000000000000       0x6b /opt/sming/Sming/compiler/lib//libmicroc.a(__toread.o)
 .data          0x0000000000000000        0x0 /opt/sming/Sming/compiler/lib//libmicroc.a(__toread.o)
 .bss           0x0000000000000000        0x0 /opt/sming/Sming/compiler/lib//libmicroc.a(__toread.o)
 .xt.lit        0x0000000000000000        0x8 /opt/sming/Sming/compiler/lib//libmicroc.a(__toread.o)
 .xt.prop       0x0000000000000000       0x78 /opt/sming/Sming/compiler/lib//libmicroc.a(__toread.o)
 .irom0.text    0x0000000000000000        0x2 /opt/sming/Sming/compiler/lib//libmicroc.a(__stdio_exit.o)
 .data          0x0000000000000000        0x0 /opt/sming/Sming/compiler/lib//libmicroc.a(__stdio_exit.o)
 .bss           0x0000000000000000        0x4 /opt/sming/Sming/compiler/lib//libmicroc.a(__stdio_exit.o)
 .xt.prop       0x0000000000000000       0x30 /opt/sming/Sming/compiler/lib//libmicroc.a(__stdio_exit.o)
 .irom0.literal
                0x0000000000000000        0x4 /opt/sming/Sming/compiler/lib//libmicroc.a(fmodl.o)
 .irom0.text    0x0000000000000000       0x13 /opt/sming/Sming/compiler/lib//libmicroc.a(fmodl.o)
 .data          0x0000000000000000        0x0 /opt/sming/Sming/compiler/lib//libmicroc.a(fmodl.o)
 .bss           0x0000000000000000        0x0 /opt/sming/Sming/compiler/lib//libmicroc.a(fmodl.o)
 .xt.lit        0x0000000000000000        0x8 /opt/sming/Sming/compiler/lib//libmicroc.a(fmodl.o)
 .xt.prop       0x0000000000000000       0x30 /opt/sming/Sming/compiler/lib//libmicroc.a(fmodl.o)
 .irom0.literal
                0x0000000000000000       0x24 /opt/sming/Sming/compiler/lib//libmicroc.a(scalbn.o)
 .irom0.text    0x0000000000000000       0x8f /opt/sming/Sming/compiler/lib//libmicroc.a(scalbn.o)
 .data          0x0000000000000000        0x0 /opt/sming/Sming/compiler/lib//libmicroc.a(scalbn.o)
 .bss           0x0000000000000000        0x0 /opt/sming/Sming/compiler/lib//libmicroc.a(scalbn.o)
 .xt.lit        0x0000000000000000        0x8 /opt/sming/Sming/compiler/lib//libmicroc.a(scalbn.o)
 .xt.prop       0x0000000000000000       0x6c /opt/sming/Sming/compiler/lib//libmicroc.a(scalbn.o)
 .irom0.literal
                0x0000000000000000        0x4 /opt/sming/Sming/compiler/lib//libmicroc.a(scalbnl.o)
 .irom0.text    0x0000000000000000       0x13 /opt/sming/Sming/compiler/lib//libmicroc.a(scalbnl.o)
 .data          0x0000000000000000        0x0 /opt/sming/Sming/compiler/lib//libmicroc.a(scalbnl.o)
 .bss           0x0000000000000000        0x0 /opt/sming/Sming/compiler/lib//libmicroc.a(scalbnl.o)
 .xt.lit        0x0000000000000000        0x8 /opt/sming/Sming/compiler/lib//libmicroc.a(scalbnl.o)
 .xt.prop       0x0000000000000000       0x30 /opt/sming/Sming/compiler/lib//libmicroc.a(scalbnl.o)
 .irom0.literal
                0x0000000000000000        0x4 /opt/sming/Sming/compiler/lib//libmicroc.a(__errno_location.o)
 .irom0.text    0x0000000000000000        0x5 /opt/sming/Sming/compiler/lib//libmicroc.a(__errno_location.o)
 .data          0x0000000000000000        0x0 /opt/sming/Sming/compiler/lib//libmicroc.a(__errno_location.o)
 .bss           0x0000000000000000        0x4 /opt/sming/Sming/compiler/lib//libmicroc.a(__errno_location.o)
 .xt.lit        0x0000000000000000        0x8 /opt/sming/Sming/compiler/lib//libmicroc.a(__errno_location.o)
 .xt.prop       0x0000000000000000       0x3c /opt/sming/Sming/compiler/lib//libmicroc.a(__errno_location.o)
 .irom0.literal
                0x0000000000000000       0x38 /opt/sming/Sming/compiler/lib//libmicroc.a(fmod.o)
 .irom0.text    0x0000000000000000      0x1e9 /opt/sming/Sming/compiler/lib//libmicroc.a(fmod.o)
 .data          0x0000000000000000        0x0 /opt/sming/Sming/compiler/lib//libmicroc.a(fmod.o)
 .bss           0x0000000000000000        0x0 /opt/sming/Sming/compiler/lib//libmicroc.a(fmod.o)
 .xt.lit        0x0000000000000000        0x8 /opt/sming/Sming/compiler/lib//libmicroc.a(fmod.o)
 .xt.prop       0x0000000000000000      0x180 /opt/sming/Sming/compiler/lib//libmicroc.a(fmod.o)
 .text          0x0000000000000000       0x17 /opt/sming/Sming/compiler/lib//libmicrogcc.a(_ashldi3.o)
 .data          0x0000000000000000        0x0 /opt/sming/Sming/compiler/lib//libmicrogcc.a(_ashldi3.o)
 .bss           0x0000000000000000        0x0 /opt/sming/Sming/compiler/lib//libmicrogcc.a(_ashldi3.o)
 .xt.prop       0x0000000000000000       0x3c /opt/sming/Sming/compiler/lib//libmicrogcc.a(_ashldi3.o)
 .data          0x0000000000000000        0x0 /opt/sming/Sming/compiler/lib//libmicrogcc.a(_cmpdf2.o)
 .bss           0x0000000000000000        0x0 /opt/sming/Sming/compiler/lib//libmicrogcc.a(_cmpdf2.o)
 .xt.lit        0x0000000000000000        0x8 /opt/sming/Sming/compiler/lib//libmicrogcc.a(_cmpdf2.o)
 .xt.prop       0x0000000000000000      0x288 /opt/sming/Sming/compiler/lib//libmicrogcc.a(_cmpdf2.o)
 .text          0x0000000000000000       0x17 /opt/sming/Sming/compiler/lib//libmicrogcc.a(_lshrdi3.o)
 .data          0x0000000000000000        0x0 /opt/sming/Sming/compiler/lib//libmicrogcc.a(_lshrdi3.o)
 .bss           0x0000000000000000        0x0 /opt/sming/Sming/compiler/lib//libmicrogcc.a(_lshrdi3.o)
 .xt.prop       0x0000000000000000       0x3c /opt/sming/Sming/compiler/lib//libmicrogcc.a(_lshrdi3.o)
 .data          0x0000000000000000        0x0 /opt/sming/Sming/compiler/lib//libmicrogcc.a(_modsi3.o)
 .bss           0x0000000000000000        0x0 /opt/sming/Sming/compiler/lib//libmicrogcc.a(_modsi3.o)
 .xt.prop       0x0000000000000000       0x84 /opt/sming/Sming/compiler/lib//libmicrogcc.a(_modsi3.o)
 .data          0x0000000000000000        0x0 /opt/esp-open-sdk/xtensa-lx106-elf/xtensa-lx106-elf/sysroot/usr/lib/libhal.a(int_asm--set_intclear.o)
 .bss           0x0000000000000000        0x0 /opt/esp-open-sdk/xtensa-lx106-elf/xtensa-lx106-elf/sysroot/usr/lib/libhal.a(int_asm--set_intclear.o)
 .xt.prop       0x0000000000000000       0x24 /opt/esp-open-sdk/xtensa-lx106-elf/xtensa-lx106-elf/sysroot/usr/lib/libhal.a(int_asm--set_intclear.o)
 .irom0.literal
                0x0000000000000000        0x0 /opt/esp-open-sdk/sdk/lib/libphy.a(phy.o)
 .literal       0x0000000000000000        0x0 /opt/esp-open-sdk/sdk/lib/libphy.a(phy.o)
 .data          0x0000000000000000        0x0 /opt/esp-open-sdk/sdk/lib/libphy.a(phy.o)
 .xt.lit        0x0000000000000000       0x68 /opt/esp-open-sdk/sdk/lib/libphy.a(phy.o)
 .xt.prop       0x0000000000000000      0x1e0 /opt/esp-open-sdk/sdk/lib/libphy.a(phy.o)
 .irom0.literal
                0x0000000000000000        0x0 /opt/esp-open-sdk/sdk/lib/libphy.a(phy_chip_v6_ana.o)
 .literal       0x0000000000000000        0x0 /opt/esp-open-sdk/sdk/lib/libphy.a(phy_chip_v6_ana.o)
 .data          0x0000000000000000        0x0 /opt/esp-open-sdk/sdk/lib/libphy.a(phy_chip_v6_ana.o)
 .rodata        0x0000000000000000        0x8 /opt/esp-open-sdk/sdk/lib/libphy.a(phy_chip_v6_ana.o)
 .xt.lit        0x0000000000000000       0xc8 /opt/esp-open-sdk/sdk/lib/libphy.a(phy_chip_v6_ana.o)
 .xt.prop       0x0000000000000000      0xdc8 /opt/esp-open-sdk/sdk/lib/libphy.a(phy_chip_v6_ana.o)
 .irom0.literal
                0x0000000000000000        0x0 /opt/esp-open-sdk/sdk/lib/libphy.a(phy_chip_v6.o)
 .literal       0x0000000000000000        0x0 /opt/esp-open-sdk/sdk/lib/libphy.a(phy_chip_v6.o)
 .text          0x0000000000000000       0x55 /opt/esp-open-sdk/sdk/lib/libphy.a(phy_chip_v6.o)
 .xt.lit        0x0000000000000000      0x248 /opt/esp-open-sdk/sdk/lib/libphy.a(phy_chip_v6.o)
 .xt.prop       0x0000000000000000     0x228c /opt/esp-open-sdk/sdk/lib/libphy.a(phy_chip_v6.o)
 .irom0.literal
                0x0000000000000000        0x0 /opt/esp-open-sdk/sdk/lib/libphy.a(phy_chip_v6_cal.o)
 .literal       0x0000000000000000        0x0 /opt/esp-open-sdk/sdk/lib/libphy.a(phy_chip_v6_cal.o)
 .xt.lit        0x0000000000000000       0xe8 /opt/esp-open-sdk/sdk/lib/libphy.a(phy_chip_v6_cal.o)
 .xt.prop       0x0000000000000000     0x1014 /opt/esp-open-sdk/sdk/lib/libphy.a(phy_chip_v6_cal.o)
 .irom0.literal
                0x0000000000000000        0x0 /opt/esp-open-sdk/sdk/lib/libphy.a(phy_chip_v6_unused.o)
 .text          0x0000000000000000        0x0 /opt/esp-open-sdk/sdk/lib/libphy.a(phy_chip_v6_unused.o)
 .data          0x0000000000000000        0x0 /opt/esp-open-sdk/sdk/lib/libphy.a(phy_chip_v6_unused.o)
 .bss           0x0000000000000000        0x0 /opt/esp-open-sdk/sdk/lib/libphy.a(phy_chip_v6_unused.o)
 .xt.prop       0x0000000000000000       0x6c /opt/esp-open-sdk/sdk/lib/libphy.a(phy_chip_v6_unused.o)
 .irom0.literal
                0x0000000000000000        0x0 /opt/esp-open-sdk/sdk/lib/libphy.a(phy_sleep.o)
 .literal       0x0000000000000000        0x0 /opt/esp-open-sdk/sdk/lib/libphy.a(phy_sleep.o)
 .xt.lit        0x0000000000000000       0xd0 /opt/esp-open-sdk/sdk/lib/libphy.a(phy_sleep.o)
 .xt.prop       0x0000000000000000      0x8ac /opt/esp-open-sdk/sdk/lib/libphy.a(phy_sleep.o)
 .irom0.literal
                0x0000000000000000        0x0 /opt/esp-open-sdk/sdk/lib/libpp.a(if_hwctrl.o)
 .text          0x0000000000000000        0x0 /opt/esp-open-sdk/sdk/lib/libpp.a(if_hwctrl.o)
 .data          0x0000000000000000        0x0 /opt/esp-open-sdk/sdk/lib/libpp.a(if_hwctrl.o)
 .xt.lit        0x0000000000000000       0xa0 /opt/esp-open-sdk/sdk/lib/libpp.a(if_hwctrl.o)
 .xt.prop       0x0000000000000000      0x51c /opt/esp-open-sdk/sdk/lib/libpp.a(if_hwctrl.o)
 .literal       0x0000000000000000        0x0 /opt/esp-open-sdk/sdk/lib/libpp.a(lmac.o)
 .irom0.literal
                0x0000000000000000        0x0 /opt/esp-open-sdk/sdk/lib/libpp.a(lmac.o)
 .data          0x0000000000000000        0x0 /opt/esp-open-sdk/sdk/lib/libpp.a(lmac.o)
 .xt.lit        0x0000000000000000      0x130 /opt/esp-open-sdk/sdk/lib/libpp.a(lmac.o)
 .xt.prop       0x0000000000000000     0x1548 /opt/esp-open-sdk/sdk/lib/libpp.a(lmac.o)
 .irom0.literal
                0x0000000000000000        0x0 /opt/esp-open-sdk/sdk/lib/libpp.a(pm.o)
 .text          0x0000000000000000        0x0 /opt/esp-open-sdk/sdk/lib/libpp.a(pm.o)
 .xt.lit        0x0000000000000000      0x198 /opt/esp-open-sdk/sdk/lib/libpp.a(pm.o)
 .xt.prop       0x0000000000000000     0x1698 /opt/esp-open-sdk/sdk/lib/libpp.a(pm.o)
 .irom0.literal
                0x0000000000000000        0x0 /opt/esp-open-sdk/sdk/lib/libpp.a(pm_for_bcn_only_mode.o)
 .text          0x0000000000000000        0x0 /opt/esp-open-sdk/sdk/lib/libpp.a(pm_for_bcn_only_mode.o)
 .xt.lit        0x0000000000000000       0xa8 /opt/esp-open-sdk/sdk/lib/libpp.a(pm_for_bcn_only_mode.o)
 .xt.prop       0x0000000000000000      0x978 /opt/esp-open-sdk/sdk/lib/libpp.a(pm_for_bcn_only_mode.o)
 .literal       0x0000000000000000        0x0 /opt/esp-open-sdk/sdk/lib/libpp.a(pp.o)
 .irom0.literal
                0x0000000000000000        0x0 /opt/esp-open-sdk/sdk/lib/libpp.a(pp.o)
 .xt.lit        0x0000000000000000      0x1b0 /opt/esp-open-sdk/sdk/lib/libpp.a(pp.o)
 .xt.prop       0x0000000000000000     0x1b0c /opt/esp-open-sdk/sdk/lib/libpp.a(pp.o)
 .literal       0x0000000000000000        0x0 /opt/esp-open-sdk/sdk/lib/libpp.a(rate_control.o)
 .irom0.literal
                0x0000000000000000        0x0 /opt/esp-open-sdk/sdk/lib/libpp.a(rate_control.o)
 .xt.lit        0x0000000000000000       0x38 /opt/esp-open-sdk/sdk/lib/libpp.a(rate_control.o)
 .xt.prop       0x0000000000000000      0x1d4 /opt/esp-open-sdk/sdk/lib/libpp.a(rate_control.o)
 .irom0.literal
                0x0000000000000000        0x0 /opt/esp-open-sdk/sdk/lib/libpp.a(trc.o)
 .literal       0x0000000000000000        0x0 /opt/esp-open-sdk/sdk/lib/libpp.a(trc.o)
 .xt.lit        0x0000000000000000       0xa8 /opt/esp-open-sdk/sdk/lib/libpp.a(trc.o)
 .xt.prop       0x0000000000000000     0x11a0 /opt/esp-open-sdk/sdk/lib/libpp.a(trc.o)
 .literal       0x0000000000000000        0x0 /opt/esp-open-sdk/sdk/lib/libpp.a(wdev.o)
 .irom0.literal
                0x0000000000000000        0x0 /opt/esp-open-sdk/sdk/lib/libpp.a(wdev.o)
 .xt.lit        0x0000000000000000      0x198 /opt/esp-open-sdk/sdk/lib/libpp.a(wdev.o)
 .xt.prop       0x0000000000000000     0x135c /opt/esp-open-sdk/sdk/lib/libpp.a(wdev.o)
 .literal       0x0000000000000000        0x0 /opt/esp-open-sdk/sdk/lib/libpp.a(esf_buf.o)
 .irom0.literal
                0x0000000000000000        0x0 /opt/esp-open-sdk/sdk/lib/libpp.a(esf_buf.o)
 .data          0x0000000000000000        0x0 /opt/esp-open-sdk/sdk/lib/libpp.a(esf_buf.o)
 .xt.lit        0x0000000000000000       0x20 /opt/esp-open-sdk/sdk/lib/libpp.a(esf_buf.o)
 .xt.prop       0x0000000000000000      0x2e8 /opt/esp-open-sdk/sdk/lib/libpp.a(esf_buf.o)
 .irom0.literal
                0x0000000000000000        0x0 /opt/esp-open-sdk/sdk/lib/libnet80211.a(ieee80211.o)
 .text          0x0000000000000000        0x0 /opt/esp-open-sdk/sdk/lib/libnet80211.a(ieee80211.o)
 .data          0x0000000000000000        0x0 /opt/esp-open-sdk/sdk/lib/libnet80211.a(ieee80211.o)
 .xt.lit        0x0000000000000000       0x50 /opt/esp-open-sdk/sdk/lib/libnet80211.a(ieee80211.o)
 .xt.prop       0x0000000000000000      0x4c8 /opt/esp-open-sdk/sdk/lib/libnet80211.a(ieee80211.o)
 .irom0.literal
                0x0000000000000000        0x0 /opt/esp-open-sdk/sdk/lib/libnet80211.a(ieee80211_crypto.o)
 .text          0x0000000000000000        0x0 /opt/esp-open-sdk/sdk/lib/libnet80211.a(ieee80211_crypto.o)
 .data          0x0000000000000000        0x0 /opt/esp-open-sdk/sdk/lib/libnet80211.a(ieee80211_crypto.o)
 .bss           0x0000000000000000        0x0 /opt/esp-open-sdk/sdk/lib/libnet80211.a(ieee80211_crypto.o)
 .xt.lit        0x0000000000000000       0x10 /opt/esp-open-sdk/sdk/lib/libnet80211.a(ieee80211_crypto.o)
 .xt.prop       0x0000000000000000      0x15c /opt/esp-open-sdk/sdk/lib/libnet80211.a(ieee80211_crypto.o)
 .irom0.literal
                0x0000000000000000        0x0 /opt/esp-open-sdk/sdk/lib/libnet80211.a(ieee80211_ets.o)
 .text          0x0000000000000000        0x0 /opt/esp-open-sdk/sdk/lib/libnet80211.a(ieee80211_ets.o)
 .data          0x0000000000000000        0x0 /opt/esp-open-sdk/sdk/lib/libnet80211.a(ieee80211_ets.o)
 .bss           0x0000000000000000        0x0 /opt/esp-open-sdk/sdk/lib/libnet80211.a(ieee80211_ets.o)
 .xt.lit        0x0000000000000000        0x8 /opt/esp-open-sdk/sdk/lib/libnet80211.a(ieee80211_ets.o)
 .xt.prop       0x0000000000000000       0x48 /opt/esp-open-sdk/sdk/lib/libnet80211.a(ieee80211_ets.o)
 .literal       0x0000000000000000        0x0 /opt/esp-open-sdk/sdk/lib/libnet80211.a(ieee80211_hostap.o)
 .irom0.literal
                0x0000000000000000        0x0 /opt/esp-open-sdk/sdk/lib/libnet80211.a(ieee80211_hostap.o)
 .xt.lit        0x0000000000000000       0x78 /opt/esp-open-sdk/sdk/lib/libnet80211.a(ieee80211_hostap.o)
 .xt.prop       0x0000000000000000      0xf84 /opt/esp-open-sdk/sdk/lib/libnet80211.a(ieee80211_hostap.o)
 .irom0.literal
                0x0000000000000000        0x0 /opt/esp-open-sdk/sdk/lib/libnet80211.a(ieee80211_ht.o)
 .text          0x0000000000000000        0x0 /opt/esp-open-sdk/sdk/lib/libnet80211.a(ieee80211_ht.o)
 .data          0x0000000000000000        0x0 /opt/esp-open-sdk/sdk/lib/libnet80211.a(ieee80211_ht.o)
 .bss           0x0000000000000000        0x0 /opt/esp-open-sdk/sdk/lib/libnet80211.a(ieee80211_ht.o)
 .xt.lit        0x0000000000000000       0x70 /opt/esp-open-sdk/sdk/lib/libnet80211.a(ieee80211_ht.o)
 .xt.prop       0x0000000000000000      0x690 /opt/esp-open-sdk/sdk/lib/libnet80211.a(ieee80211_ht.o)
 .irom0.literal
                0x0000000000000000        0x0 /opt/esp-open-sdk/sdk/lib/libnet80211.a(ieee80211_input.o)
 .text          0x0000000000000000        0x0 /opt/esp-open-sdk/sdk/lib/libnet80211.a(ieee80211_input.o)
 .data          0x0000000000000000        0x0 /opt/esp-open-sdk/sdk/lib/libnet80211.a(ieee80211_input.o)
 .bss           0x0000000000000000        0x0 /opt/esp-open-sdk/sdk/lib/libnet80211.a(ieee80211_input.o)
 .xt.lit        0x0000000000000000       0x60 /opt/esp-open-sdk/sdk/lib/libnet80211.a(ieee80211_input.o)
 .xt.prop       0x0000000000000000      0x8dc /opt/esp-open-sdk/sdk/lib/libnet80211.a(ieee80211_input.o)
 .irom0.literal
                0x0000000000000000        0x0 /opt/esp-open-sdk/sdk/lib/libnet80211.a(ieee80211_mesh_quick.o)
 .text          0x0000000000000000        0x0 /opt/esp-open-sdk/sdk/lib/libnet80211.a(ieee80211_mesh_quick.o)
 .data          0x0000000000000000        0x0 /opt/esp-open-sdk/sdk/lib/libnet80211.a(ieee80211_mesh_quick.o)
 .bss           0x0000000000000000        0x0 /opt/esp-open-sdk/sdk/lib/libnet80211.a(ieee80211_mesh_quick.o)
 .xt.lit        0x0000000000000000       0x28 /opt/esp-open-sdk/sdk/lib/libnet80211.a(ieee80211_mesh_quick.o)
 .xt.prop       0x0000000000000000      0x468 /opt/esp-open-sdk/sdk/lib/libnet80211.a(ieee80211_mesh_quick.o)
 .irom0.literal
                0x0000000000000000        0x0 /opt/esp-open-sdk/sdk/lib/libnet80211.a(ieee80211_output.o)
 .literal       0x0000000000000000        0x0 /opt/esp-open-sdk/sdk/lib/libnet80211.a(ieee80211_output.o)
 .data          0x0000000000000000        0x0 /opt/esp-open-sdk/sdk/lib/libnet80211.a(ieee80211_output.o)
 .bss           0x0000000000000000        0x0 /opt/esp-open-sdk/sdk/lib/libnet80211.a(ieee80211_output.o)
 .xt.lit        0x0000000000000000       0xa8 /opt/esp-open-sdk/sdk/lib/libnet80211.a(ieee80211_output.o)
 .xt.prop       0x0000000000000000     0x11e8 /opt/esp-open-sdk/sdk/lib/libnet80211.a(ieee80211_output.o)
 .irom0.literal
                0x0000000000000000        0x0 /opt/esp-open-sdk/sdk/lib/libnet80211.a(ieee80211_phy.o)
 .text          0x0000000000000000        0x0 /opt/esp-open-sdk/sdk/lib/libnet80211.a(ieee80211_phy.o)
 .data          0x0000000000000000        0x0 /opt/esp-open-sdk/sdk/lib/libnet80211.a(ieee80211_phy.o)
 .bss           0x0000000000000000        0x0 /opt/esp-open-sdk/sdk/lib/libnet80211.a(ieee80211_phy.o)
 .xt.lit        0x0000000000000000       0x18 /opt/esp-open-sdk/sdk/lib/libnet80211.a(ieee80211_phy.o)
 .xt.prop       0x0000000000000000      0x108 /opt/esp-open-sdk/sdk/lib/libnet80211.a(ieee80211_phy.o)
 .irom0.literal
                0x0000000000000000        0x0 /opt/esp-open-sdk/sdk/lib/libnet80211.a(ieee80211_power.o)
 .text          0x0000000000000000        0x0 /opt/esp-open-sdk/sdk/lib/libnet80211.a(ieee80211_power.o)
 .data          0x0000000000000000        0x0 /opt/esp-open-sdk/sdk/lib/libnet80211.a(ieee80211_power.o)
 .bss           0x0000000000000000        0x0 /opt/esp-open-sdk/sdk/lib/libnet80211.a(ieee80211_power.o)
 .xt.lit        0x0000000000000000       0x20 /opt/esp-open-sdk/sdk/lib/libnet80211.a(ieee80211_power.o)
 .xt.prop       0x0000000000000000      0x1bc /opt/esp-open-sdk/sdk/lib/libnet80211.a(ieee80211_power.o)
 .irom0.literal
                0x0000000000000000        0x0 /opt/esp-open-sdk/sdk/lib/libnet80211.a(ieee80211_proto.o)
 .text          0x0000000000000000        0x0 /opt/esp-open-sdk/sdk/lib/libnet80211.a(ieee80211_proto.o)
 .data          0x0000000000000000        0x0 /opt/esp-open-sdk/sdk/lib/libnet80211.a(ieee80211_proto.o)
 .bss           0x0000000000000000        0x0 /opt/esp-open-sdk/sdk/lib/libnet80211.a(ieee80211_proto.o)
 .xt.lit        0x0000000000000000       0x18 /opt/esp-open-sdk/sdk/lib/libnet80211.a(ieee80211_proto.o)
 .xt.prop       0x0000000000000000      0x120 /opt/esp-open-sdk/sdk/lib/libnet80211.a(ieee80211_proto.o)
 .irom0.literal
                0x0000000000000000        0x0 /opt/esp-open-sdk/sdk/lib/libnet80211.a(ieee80211_rfid.o)
 .text          0x0000000000000000        0x0 /opt/esp-open-sdk/sdk/lib/libnet80211.a(ieee80211_rfid.o)
 .data          0x0000000000000000        0x0 /opt/esp-open-sdk/sdk/lib/libnet80211.a(ieee80211_rfid.o)
 .bss           0x0000000000000000        0x0 /opt/esp-open-sdk/sdk/lib/libnet80211.a(ieee80211_rfid.o)
 .xt.lit        0x0000000000000000       0x30 /opt/esp-open-sdk/sdk/lib/libnet80211.a(ieee80211_rfid.o)
 .xt.prop       0x0000000000000000      0x12c /opt/esp-open-sdk/sdk/lib/libnet80211.a(ieee80211_rfid.o)
 .irom0.literal
                0x0000000000000000        0x0 /opt/esp-open-sdk/sdk/lib/libnet80211.a(ieee80211_scan.o)
 .text          0x0000000000000000        0x0 /opt/esp-open-sdk/sdk/lib/libnet80211.a(ieee80211_scan.o)
 .data          0x0000000000000000        0x0 /opt/esp-open-sdk/sdk/lib/libnet80211.a(ieee80211_scan.o)
 .xt.lit        0x0000000000000000       0xd8 /opt/esp-open-sdk/sdk/lib/libnet80211.a(ieee80211_scan.o)
 .xt.prop       0x0000000000000000      0xcfc /opt/esp-open-sdk/sdk/lib/libnet80211.a(ieee80211_scan.o)
 .irom0.literal
                0x0000000000000000        0x0 /opt/esp-open-sdk/sdk/lib/libnet80211.a(ieee80211_sta.o)
 .text          0x0000000000000000        0x0 /opt/esp-open-sdk/sdk/lib/libnet80211.a(ieee80211_sta.o)
 .data          0x0000000000000000        0x0 /opt/esp-open-sdk/sdk/lib/libnet80211.a(ieee80211_sta.o)
 .xt.lit        0x0000000000000000       0x60 /opt/esp-open-sdk/sdk/lib/libnet80211.a(ieee80211_sta.o)
 .xt.prop       0x0000000000000000      0xaa4 /opt/esp-open-sdk/sdk/lib/libnet80211.a(ieee80211_sta.o)
 .irom0.literal
                0x0000000000000000        0x0 /opt/esp-open-sdk/sdk/lib/libnet80211.a(wl_chm.o)
 .literal       0x0000000000000000        0x0 /opt/esp-open-sdk/sdk/lib/libnet80211.a(wl_chm.o)
 .data          0x0000000000000000        0x0 /opt/esp-open-sdk/sdk/lib/libnet80211.a(wl_chm.o)
 .xt.lit        0x0000000000000000       0x60 /opt/esp-open-sdk/sdk/lib/libnet80211.a(wl_chm.o)
 .xt.prop       0x0000000000000000      0x2dc /opt/esp-open-sdk/sdk/lib/libnet80211.a(wl_chm.o)
 .irom0.literal
                0x0000000000000000        0x0 /opt/esp-open-sdk/sdk/lib/libnet80211.a(wl_cnx.o)
 .text          0x0000000000000000        0x0 /opt/esp-open-sdk/sdk/lib/libnet80211.a(wl_cnx.o)
 .xt.lit        0x0000000000000000      0x138 /opt/esp-open-sdk/sdk/lib/libnet80211.a(wl_cnx.o)
 .xt.prop       0x0000000000000000     0x1218 /opt/esp-open-sdk/sdk/lib/libnet80211.a(wl_cnx.o)
 .irom0.literal
                0x0000000000000000        0x0 /opt/esp-open-sdk/sdk/lib/libnet80211.a(ieee80211_action.o)
 .text          0x0000000000000000        0x0 /opt/esp-open-sdk/sdk/lib/libnet80211.a(ieee80211_action.o)
 .bss           0x0000000000000000        0x0 /opt/esp-open-sdk/sdk/lib/libnet80211.a(ieee80211_action.o)
 .xt.lit        0x0000000000000000       0x30 /opt/esp-open-sdk/sdk/lib/libnet80211.a(ieee80211_action.o)
 .xt.prop       0x0000000000000000      0x33c /opt/esp-open-sdk/sdk/lib/libnet80211.a(ieee80211_action.o)
 .irom0.literal
                0x0000000000000000        0x0 /opt/esp-open-sdk/sdk/lib/libnet80211.a(ieee80211_action_vendor.o)
 .text          0x0000000000000000        0x0 /opt/esp-open-sdk/sdk/lib/libnet80211.a(ieee80211_action_vendor.o)
 .data          0x0000000000000000        0x0 /opt/esp-open-sdk/sdk/lib/libnet80211.a(ieee80211_action_vendor.o)
 .xt.lit        0x0000000000000000       0x50 /opt/esp-open-sdk/sdk/lib/libnet80211.a(ieee80211_action_vendor.o)
 .xt.prop       0x0000000000000000      0x384 /opt/esp-open-sdk/sdk/lib/libnet80211.a(ieee80211_action_vendor.o)
 .irom0.literal
                0x0000000000000000        0x0 /opt/esp-open-sdk/sdk/lib/libnet80211.a(ieee80211_crypto_ccmp.o)
 .text          0x0000000000000000        0x0 /opt/esp-open-sdk/sdk/lib/libnet80211.a(ieee80211_crypto_ccmp.o)
 .data          0x0000000000000000        0x0 /opt/esp-open-sdk/sdk/lib/libnet80211.a(ieee80211_crypto_ccmp.o)
 .bss           0x0000000000000000        0x0 /opt/esp-open-sdk/sdk/lib/libnet80211.a(ieee80211_crypto_ccmp.o)
 .xt.lit        0x0000000000000000       0x10 /opt/esp-open-sdk/sdk/lib/libnet80211.a(ieee80211_crypto_ccmp.o)
 .xt.prop       0x0000000000000000       0xd8 /opt/esp-open-sdk/sdk/lib/libnet80211.a(ieee80211_crypto_ccmp.o)
 .irom0.literal
                0x0000000000000000        0x0 /opt/esp-open-sdk/sdk/lib/libnet80211.a(ieee80211_ie_vendor.o)
 .text          0x0000000000000000        0x0 /opt/esp-open-sdk/sdk/lib/libnet80211.a(ieee80211_ie_vendor.o)
 .data          0x0000000000000000        0x0 /opt/esp-open-sdk/sdk/lib/libnet80211.a(ieee80211_ie_vendor.o)
 .bss           0x0000000000000000        0x0 /opt/esp-open-sdk/sdk/lib/libnet80211.a(ieee80211_ie_vendor.o)
 .xt.lit        0x0000000000000000       0x38 /opt/esp-open-sdk/sdk/lib/libnet80211.a(ieee80211_ie_vendor.o)
 .xt.prop       0x0000000000000000      0x114 /opt/esp-open-sdk/sdk/lib/libnet80211.a(ieee80211_ie_vendor.o)
 .irom0.literal
                0x0000000000000000        0x0 /opt/esp-open-sdk/sdk/lib/liblwip.a(dhcp.o)
 .text          0x0000000000000000        0x0 /opt/esp-open-sdk/sdk/lib/liblwip.a(dhcp.o)
 .xt.lit        0x0000000000000000       0xc0 /opt/esp-open-sdk/sdk/lib/liblwip.a(dhcp.o)
 .xt.prop       0x0000000000000000      0xdbc /opt/esp-open-sdk/sdk/lib/liblwip.a(dhcp.o)
 .irom0.literal
                0x0000000000000000        0x0 /opt/esp-open-sdk/sdk/lib/liblwip.a(dhcpserver.o)
 .text          0x0000000000000000        0x0 /opt/esp-open-sdk/sdk/lib/liblwip.a(dhcpserver.o)
 .xt.lit        0x0000000000000000       0xa8 /opt/esp-open-sdk/sdk/lib/liblwip.a(dhcpserver.o)
 .xt.prop       0x0000000000000000      0xb40 /opt/esp-open-sdk/sdk/lib/liblwip.a(dhcpserver.o)
 .irom0.literal
                0x0000000000000000        0x0 /opt/esp-open-sdk/sdk/lib/liblwip.a(dns.o)
 .text          0x0000000000000000        0x0 /opt/esp-open-sdk/sdk/lib/liblwip.a(dns.o)
 .data          0x0000000000000000        0x0 /opt/esp-open-sdk/sdk/lib/liblwip.a(dns.o)
 .xt.lit        0x0000000000000000       0x48 /opt/esp-open-sdk/sdk/lib/liblwip.a(dns.o)
 .xt.prop       0x0000000000000000      0x4c8 /opt/esp-open-sdk/sdk/lib/liblwip.a(dns.o)
 .irom0.literal
                0x0000000000000000        0x0 /opt/esp-open-sdk/sdk/lib/liblwip.a(espconn_tcp.o)
 .text          0x0000000000000000        0x0 /opt/esp-open-sdk/sdk/lib/liblwip.a(espconn_tcp.o)
 .data          0x0000000000000000        0x0 /opt/esp-open-sdk/sdk/lib/liblwip.a(espconn_tcp.o)
 .xt.lit        0x0000000000000000       0xc8 /opt/esp-open-sdk/sdk/lib/liblwip.a(espconn_tcp.o)
 .xt.prop       0x0000000000000000      0xdbc /opt/esp-open-sdk/sdk/lib/liblwip.a(espconn_tcp.o)
 .literal       0x0000000000000000        0x0 /opt/esp-open-sdk/sdk/lib/liblwip.a(etharp.o)
 .irom0.literal
                0x0000000000000000        0x0 /opt/esp-open-sdk/sdk/lib/liblwip.a(etharp.o)
 .data          0x0000000000000000        0x0 /opt/esp-open-sdk/sdk/lib/liblwip.a(etharp.o)
 .xt.lit        0x0000000000000000       0x78 /opt/esp-open-sdk/sdk/lib/liblwip.a(etharp.o)
 .xt.prop       0x0000000000000000      0x750 /opt/esp-open-sdk/sdk/lib/liblwip.a(etharp.o)
 .irom0.literal
                0x0000000000000000        0x0 /opt/esp-open-sdk/sdk/lib/liblwip.a(init.o)
 .text          0x0000000000000000        0x0 /opt/esp-open-sdk/sdk/lib/liblwip.a(init.o)
 .data          0x0000000000000000        0x0 /opt/esp-open-sdk/sdk/lib/liblwip.a(init.o)
 .bss           0x0000000000000000        0x0 /opt/esp-open-sdk/sdk/lib/liblwip.a(init.o)
 .xt.lit        0x0000000000000000        0x8 /opt/esp-open-sdk/sdk/lib/liblwip.a(init.o)
 .xt.prop       0x0000000000000000       0x24 /opt/esp-open-sdk/sdk/lib/liblwip.a(init.o)
 .irom0.literal
                0x0000000000000000        0x0 /opt/esp-open-sdk/sdk/lib/liblwip.a(ip_addr.o)
 .text          0x0000000000000000        0x0 /opt/esp-open-sdk/sdk/lib/liblwip.a(ip_addr.o)
 .data          0x0000000000000000        0x0 /opt/esp-open-sdk/sdk/lib/liblwip.a(ip_addr.o)
 .xt.lit        0x0000000000000000       0x20 /opt/esp-open-sdk/sdk/lib/liblwip.a(ip_addr.o)
 .xt.prop       0x0000000000000000      0x330 /opt/esp-open-sdk/sdk/lib/liblwip.a(ip_addr.o)
 .irom0.literal
                0x0000000000000000        0x0 /opt/esp-open-sdk/sdk/lib/liblwip.a(ip.o)
 .text          0x0000000000000000        0x0 /opt/esp-open-sdk/sdk/lib/liblwip.a(ip.o)
 .data          0x0000000000000000        0x0 /opt/esp-open-sdk/sdk/lib/liblwip.a(ip.o)
 .xt.lit        0x0000000000000000       0x20 /opt/esp-open-sdk/sdk/lib/liblwip.a(ip.o)
 .xt.prop       0x0000000000000000      0x480 /opt/esp-open-sdk/sdk/lib/liblwip.a(ip.o)
 .text          0x0000000000000000        0x0 /opt/esp-open-sdk/sdk/lib/liblwip.a(memp.o)
 .data          0x0000000000000000        0x2 /opt/esp-open-sdk/sdk/lib/liblwip.a(memp.o)
 .bss           0x0000000000000000        0x0 /opt/esp-open-sdk/sdk/lib/liblwip.a(memp.o)
 .xt.prop       0x0000000000000000       0x18 /opt/esp-open-sdk/sdk/lib/liblwip.a(memp.o)
 .irom0.literal
                0x0000000000000000        0x0 /opt/esp-open-sdk/sdk/lib/liblwip.a(netif.o)
 .text          0x0000000000000000        0x0 /opt/esp-open-sdk/sdk/lib/liblwip.a(netif.o)
 .data          0x0000000000000000        0x0 /opt/esp-open-sdk/sdk/lib/liblwip.a(netif.o)
 .xt.lit        0x0000000000000000       0x40 /opt/esp-open-sdk/sdk/lib/liblwip.a(netif.o)
 .xt.prop       0x0000000000000000      0x354 /opt/esp-open-sdk/sdk/lib/liblwip.a(netif.o)
 .irom0.literal
                0x0000000000000000        0x0 /opt/esp-open-sdk/sdk/lib/liblwip.a(pbuf.o)
 .text          0x0000000000000000        0x0 /opt/esp-open-sdk/sdk/lib/liblwip.a(pbuf.o)
 .data          0x0000000000000000        0x0 /opt/esp-open-sdk/sdk/lib/liblwip.a(pbuf.o)
 .bss           0x0000000000000000        0x0 /opt/esp-open-sdk/sdk/lib/liblwip.a(pbuf.o)
 .xt.lit        0x0000000000000000       0x48 /opt/esp-open-sdk/sdk/lib/liblwip.a(pbuf.o)
 .xt.prop       0x0000000000000000      0x7b0 /opt/esp-open-sdk/sdk/lib/liblwip.a(pbuf.o)
 .irom0.literal
                0x0000000000000000        0x0 /opt/esp-open-sdk/sdk/lib/liblwip.a(raw.o)
 .text          0x0000000000000000        0x0 /opt/esp-open-sdk/sdk/lib/liblwip.a(raw.o)
 .data          0x0000000000000000        0x0 /opt/esp-open-sdk/sdk/lib/liblwip.a(raw.o)
 .xt.lit        0x0000000000000000       0x20 /opt/esp-open-sdk/sdk/lib/liblwip.a(raw.o)
 .xt.prop       0x0000000000000000      0x2ac /opt/esp-open-sdk/sdk/lib/liblwip.a(raw.o)
 .irom0.literal
                0x0000000000000000        0x0 /opt/esp-open-sdk/sdk/lib/liblwip.a(tcp_in.o)
 .text          0x0000000000000000        0x0 /opt/esp-open-sdk/sdk/lib/liblwip.a(tcp_in.o)
 .data          0x0000000000000000        0x0 /opt/esp-open-sdk/sdk/lib/liblwip.a(tcp_in.o)
 .xt.lit        0x0000000000000000       0x38 /opt/esp-open-sdk/sdk/lib/liblwip.a(tcp_in.o)
 .xt.prop       0x0000000000000000      0xcfc /opt/esp-open-sdk/sdk/lib/liblwip.a(tcp_in.o)
 .irom0.literal
                0x0000000000000000        0x0 /opt/esp-open-sdk/sdk/lib/liblwip.a(tcp.o)
 .literal       0x0000000000000000        0x0 /opt/esp-open-sdk/sdk/lib/liblwip.a(tcp.o)
 .xt.lit        0x0000000000000000       0xb8 /opt/esp-open-sdk/sdk/lib/liblwip.a(tcp.o)
 .xt.prop       0x0000000000000000      0xd68 /opt/esp-open-sdk/sdk/lib/liblwip.a(tcp.o)
 .irom0.literal
                0x0000000000000000        0x0 /opt/esp-open-sdk/sdk/lib/liblwip.a(tcp_out.o)
 .literal       0x0000000000000000        0x0 /opt/esp-open-sdk/sdk/lib/liblwip.a(tcp_out.o)
 .data          0x0000000000000000        0x0 /opt/esp-open-sdk/sdk/lib/liblwip.a(tcp_out.o)
 .bss           0x0000000000000000        0x0 /opt/esp-open-sdk/sdk/lib/liblwip.a(tcp_out.o)
 .xt.lit        0x0000000000000000       0x68 /opt/esp-open-sdk/sdk/lib/liblwip.a(tcp_out.o)
 .xt.prop       0x0000000000000000      0x8e8 /opt/esp-open-sdk/sdk/lib/liblwip.a(tcp_out.o)
 .irom0.literal
                0x0000000000000000        0x0 /opt/esp-open-sdk/sdk/lib/liblwip.a(timers.o)
 .literal       0x0000000000000000        0x0 /opt/esp-open-sdk/sdk/lib/liblwip.a(timers.o)
 .data          0x0000000000000000        0x0 /opt/esp-open-sdk/sdk/lib/liblwip.a(timers.o)
 .xt.lit        0x0000000000000000       0x68 /opt/esp-open-sdk/sdk/lib/liblwip.a(timers.o)
 .xt.prop       0x0000000000000000      0x384 /opt/esp-open-sdk/sdk/lib/liblwip.a(timers.o)
 .irom0.literal
                0x0000000000000000        0x0 /opt/esp-open-sdk/sdk/lib/liblwip.a(udp.o)
 .text          0x0000000000000000        0x0 /opt/esp-open-sdk/sdk/lib/liblwip.a(udp.o)
 .data          0x0000000000000000        0x0 /opt/esp-open-sdk/sdk/lib/liblwip.a(udp.o)
 .xt.lit        0x0000000000000000       0x38 /opt/esp-open-sdk/sdk/lib/liblwip.a(udp.o)
 .xt.prop       0x0000000000000000      0x5b8 /opt/esp-open-sdk/sdk/lib/liblwip.a(udp.o)
 .irom0.literal
                0x0000000000000000        0x0 /opt/esp-open-sdk/sdk/lib/liblwip.a(espconn.o)
 .text          0x0000000000000000        0x0 /opt/esp-open-sdk/sdk/lib/liblwip.a(espconn.o)
 .data          0x0000000000000000        0x0 /opt/esp-open-sdk/sdk/lib/liblwip.a(espconn.o)
 .xt.lit        0x0000000000000000       0xe8 /opt/esp-open-sdk/sdk/lib/liblwip.a(espconn.o)
 .xt.prop       0x0000000000000000      0xf84 /opt/esp-open-sdk/sdk/lib/liblwip.a(espconn.o)
 .irom0.literal
                0x0000000000000000        0x0 /opt/esp-open-sdk/sdk/lib/liblwip.a(espconn_udp.o)
 .text          0x0000000000000000        0x0 /opt/esp-open-sdk/sdk/lib/liblwip.a(espconn_udp.o)
 .data          0x0000000000000000        0x0 /opt/esp-open-sdk/sdk/lib/liblwip.a(espconn_udp.o)
 .bss           0x0000000000000000        0x0 /opt/esp-open-sdk/sdk/lib/liblwip.a(espconn_udp.o)
 .xt.lit        0x0000000000000000       0x38 /opt/esp-open-sdk/sdk/lib/liblwip.a(espconn_udp.o)
 .xt.prop       0x0000000000000000      0x33c /opt/esp-open-sdk/sdk/lib/liblwip.a(espconn_udp.o)
 .irom0.literal
                0x0000000000000000        0x0 /opt/esp-open-sdk/sdk/lib/liblwip.a(icmp.o)
 .text          0x0000000000000000        0x0 /opt/esp-open-sdk/sdk/lib/liblwip.a(icmp.o)
 .data          0x0000000000000000        0x0 /opt/esp-open-sdk/sdk/lib/liblwip.a(icmp.o)
 .bss           0x0000000000000000        0x0 /opt/esp-open-sdk/sdk/lib/liblwip.a(icmp.o)
 .xt.lit        0x0000000000000000       0x10 /opt/esp-open-sdk/sdk/lib/liblwip.a(icmp.o)
 .xt.prop       0x0000000000000000      0x114 /opt/esp-open-sdk/sdk/lib/liblwip.a(icmp.o)
 .irom0.literal
                0x0000000000000000        0x0 /opt/esp-open-sdk/sdk/lib/liblwip.a(igmp.o)
 .text          0x0000000000000000        0x0 /opt/esp-open-sdk/sdk/lib/liblwip.a(igmp.o)
 .data          0x0000000000000000        0x0 /opt/esp-open-sdk/sdk/lib/liblwip.a(igmp.o)
 .xt.lit        0x0000000000000000       0x70 /opt/esp-open-sdk/sdk/lib/liblwip.a(igmp.o)
 .xt.prop       0x0000000000000000      0x66c /opt/esp-open-sdk/sdk/lib/liblwip.a(igmp.o)
 .irom0.literal
                0x0000000000000000        0x0 /opt/esp-open-sdk/sdk/lib/liblwip.a(inet_chksum.o)
 .text          0x0000000000000000        0x0 /opt/esp-open-sdk/sdk/lib/liblwip.a(inet_chksum.o)
 .data          0x0000000000000000        0x0 /opt/esp-open-sdk/sdk/lib/liblwip.a(inet_chksum.o)
 .bss           0x0000000000000000        0x0 /opt/esp-open-sdk/sdk/lib/liblwip.a(inet_chksum.o)
 .xt.prop       0x0000000000000000      0x168 /opt/esp-open-sdk/sdk/lib/liblwip.a(inet_chksum.o)
 .irom0.literal
                0x0000000000000000        0x0 /opt/esp-open-sdk/sdk/lib/libwpa.a(ap_config.o)
 .text          0x0000000000000000        0x0 /opt/esp-open-sdk/sdk/lib/libwpa.a(ap_config.o)
 .data          0x0000000000000000        0x0 /opt/esp-open-sdk/sdk/lib/libwpa.a(ap_config.o)
 .bss           0x0000000000000000        0x0 /opt/esp-open-sdk/sdk/lib/libwpa.a(ap_config.o)
 .xt.lit        0x0000000000000000       0x40 /opt/esp-open-sdk/sdk/lib/libwpa.a(ap_config.o)
 .xt.prop       0x0000000000000000      0x2f4 /opt/esp-open-sdk/sdk/lib/libwpa.a(ap_config.o)
 .irom0.literal
                0x0000000000000000        0x0 /opt/esp-open-sdk/sdk/lib/libwpa.a(common.o)
 .text          0x0000000000000000        0x0 /opt/esp-open-sdk/sdk/lib/libwpa.a(common.o)
 .data          0x0000000000000000        0x0 /opt/esp-open-sdk/sdk/lib/libwpa.a(common.o)
 .bss           0x0000000000000000        0x0 /opt/esp-open-sdk/sdk/lib/libwpa.a(common.o)
 .xt.lit        0x0000000000000000       0x18 /opt/esp-open-sdk/sdk/lib/libwpa.a(common.o)
 .xt.prop       0x0000000000000000      0x228 /opt/esp-open-sdk/sdk/lib/libwpa.a(common.o)
 .irom0.literal
                0x0000000000000000        0x0 /opt/esp-open-sdk/sdk/lib/libwpa.a(os_xtensa.o)
 .text          0x0000000000000000        0x0 /opt/esp-open-sdk/sdk/lib/libwpa.a(os_xtensa.o)
 .data          0x0000000000000000        0x0 /opt/esp-open-sdk/sdk/lib/libwpa.a(os_xtensa.o)
 .bss           0x0000000000000000        0x0 /opt/esp-open-sdk/sdk/lib/libwpa.a(os_xtensa.o)
 .xt.lit        0x0000000000000000       0x10 /opt/esp-open-sdk/sdk/lib/libwpa.a(os_xtensa.o)
 .xt.prop       0x0000000000000000       0xfc /opt/esp-open-sdk/sdk/lib/libwpa.a(os_xtensa.o)
 .literal       0x0000000000000000        0x0 /opt/esp-open-sdk/sdk/lib/libwpa.a(wpa_auth.o)
 .irom0.literal
                0x0000000000000000        0x0 /opt/esp-open-sdk/sdk/lib/libwpa.a(wpa_auth.o)
 .data          0x0000000000000000        0x0 /opt/esp-open-sdk/sdk/lib/libwpa.a(wpa_auth.o)
 .bss           0x0000000000000000        0x0 /opt/esp-open-sdk/sdk/lib/libwpa.a(wpa_auth.o)
 .xt.lit        0x0000000000000000      0x100 /opt/esp-open-sdk/sdk/lib/libwpa.a(wpa_auth.o)
 .xt.prop       0x0000000000000000     0x1668 /opt/esp-open-sdk/sdk/lib/libwpa.a(wpa_auth.o)
 .irom0.literal
                0x0000000000000000        0x0 /opt/esp-open-sdk/sdk/lib/libwpa.a(wpa_auth_ie.o)
 .text          0x0000000000000000        0x0 /opt/esp-open-sdk/sdk/lib/libwpa.a(wpa_auth_ie.o)
 .data          0x0000000000000000        0x0 /opt/esp-open-sdk/sdk/lib/libwpa.a(wpa_auth_ie.o)
 .bss           0x0000000000000000        0x0 /opt/esp-open-sdk/sdk/lib/libwpa.a(wpa_auth_ie.o)
 .xt.lit        0x0000000000000000       0x38 /opt/esp-open-sdk/sdk/lib/libwpa.a(wpa_auth_ie.o)
 .xt.prop       0x0000000000000000      0x48c /opt/esp-open-sdk/sdk/lib/libwpa.a(wpa_auth_ie.o)
 .irom0.literal
                0x0000000000000000        0x0 /opt/esp-open-sdk/sdk/lib/libwpa.a(wpa.o)
 .text          0x0000000000000000        0x0 /opt/esp-open-sdk/sdk/lib/libwpa.a(wpa.o)
 .data          0x0000000000000000        0x0 /opt/esp-open-sdk/sdk/lib/libwpa.a(wpa.o)
 .xt.lit        0x0000000000000000      0x110 /opt/esp-open-sdk/sdk/lib/libwpa.a(wpa.o)
 .xt.prop       0x0000000000000000      0xdb0 /opt/esp-open-sdk/sdk/lib/libwpa.a(wpa.o)
 .irom0.literal
                0x0000000000000000        0x0 /opt/esp-open-sdk/sdk/lib/libwpa.a(wpa_common.o)
 .text          0x0000000000000000        0x0 /opt/esp-open-sdk/sdk/lib/libwpa.a(wpa_common.o)
 .data          0x0000000000000000        0x0 /opt/esp-open-sdk/sdk/lib/libwpa.a(wpa_common.o)
 .bss           0x0000000000000000        0x0 /opt/esp-open-sdk/sdk/lib/libwpa.a(wpa_common.o)
 .xt.lit        0x0000000000000000       0x58 /opt/esp-open-sdk/sdk/lib/libwpa.a(wpa_common.o)
 .xt.prop       0x0000000000000000      0x7a4 /opt/esp-open-sdk/sdk/lib/libwpa.a(wpa_common.o)
 .irom0.literal
                0x0000000000000000        0x0 /opt/esp-open-sdk/sdk/lib/libwpa.a(wpa_debug.o)
 .text          0x0000000000000000        0x0 /opt/esp-open-sdk/sdk/lib/libwpa.a(wpa_debug.o)
 .data          0x0000000000000000        0x0 /opt/esp-open-sdk/sdk/lib/libwpa.a(wpa_debug.o)
 .bss           0x0000000000000000        0x0 /opt/esp-open-sdk/sdk/lib/libwpa.a(wpa_debug.o)
 .xt.lit        0x0000000000000000        0x8 /opt/esp-open-sdk/sdk/lib/libwpa.a(wpa_debug.o)
 .xt.prop       0x0000000000000000       0xc0 /opt/esp-open-sdk/sdk/lib/libwpa.a(wpa_debug.o)
 .irom0.literal
                0x0000000000000000        0x0 /opt/esp-open-sdk/sdk/lib/libwpa.a(wpa_ie.o)
 .text          0x0000000000000000        0x0 /opt/esp-open-sdk/sdk/lib/libwpa.a(wpa_ie.o)
 .data          0x0000000000000000        0x0 /opt/esp-open-sdk/sdk/lib/libwpa.a(wpa_ie.o)
 .bss           0x0000000000000000        0x0 /opt/esp-open-sdk/sdk/lib/libwpa.a(wpa_ie.o)
 .xt.lit        0x0000000000000000       0x18 /opt/esp-open-sdk/sdk/lib/libwpa.a(wpa_ie.o)
 .xt.prop       0x0000000000000000      0x378 /opt/esp-open-sdk/sdk/lib/libwpa.a(wpa_ie.o)
 .irom0.literal
                0x0000000000000000        0x0 /opt/esp-open-sdk/sdk/lib/libwpa.a(wpa_main.o)
 .text          0x0000000000000000        0x0 /opt/esp-open-sdk/sdk/lib/libwpa.a(wpa_main.o)
 .data          0x0000000000000000        0x0 /opt/esp-open-sdk/sdk/lib/libwpa.a(wpa_main.o)
 .bss           0x0000000000000000        0x0 /opt/esp-open-sdk/sdk/lib/libwpa.a(wpa_main.o)
 .xt.lit        0x0000000000000000       0x48 /opt/esp-open-sdk/sdk/lib/libwpa.a(wpa_main.o)
 .xt.prop       0x0000000000000000      0x33c /opt/esp-open-sdk/sdk/lib/libwpa.a(wpa_main.o)
 .irom0.literal
                0x0000000000000000        0x0 /opt/esp-open-sdk/sdk/lib/libwpa.a(wpas_glue.o)
 .text          0x0000000000000000        0x0 /opt/esp-open-sdk/sdk/lib/libwpa.a(wpas_glue.o)
 .data          0x0000000000000000        0x0 /opt/esp-open-sdk/sdk/lib/libwpa.a(wpas_glue.o)
 .bss           0x0000000000000000        0x0 /opt/esp-open-sdk/sdk/lib/libwpa.a(wpas_glue.o)
 .xt.lit        0x0000000000000000       0x10 /opt/esp-open-sdk/sdk/lib/libwpa.a(wpas_glue.o)
 .xt.prop       0x0000000000000000      0x12c /opt/esp-open-sdk/sdk/lib/libwpa.a(wpas_glue.o)
 .irom0.literal
                0x0000000000000000        0x0 /opt/esp-open-sdk/sdk/lib/libwpa.a(aes-wrap.o)
 .text          0x0000000000000000        0x0 /opt/esp-open-sdk/sdk/lib/libwpa.a(aes-wrap.o)
 .data          0x0000000000000000        0x0 /opt/esp-open-sdk/sdk/lib/libwpa.a(aes-wrap.o)
 .bss           0x0000000000000000        0x0 /opt/esp-open-sdk/sdk/lib/libwpa.a(aes-wrap.o)
 .xt.lit        0x0000000000000000        0x8 /opt/esp-open-sdk/sdk/lib/libwpa.a(aes-wrap.o)
 .xt.prop       0x0000000000000000       0x6c /opt/esp-open-sdk/sdk/lib/libwpa.a(aes-wrap.o)
 .irom0.literal
                0x0000000000000000        0x0 /opt/esp-open-sdk/sdk/lib/libwpa.a(aes-internal-enc.o)
 .text          0x0000000000000000        0x0 /opt/esp-open-sdk/sdk/lib/libwpa.a(aes-internal-enc.o)
 .data          0x0000000000000000        0x0 /opt/esp-open-sdk/sdk/lib/libwpa.a(aes-internal-enc.o)
 .bss           0x0000000000000000        0x0 /opt/esp-open-sdk/sdk/lib/libwpa.a(aes-internal-enc.o)
 .xt.lit        0x0000000000000000       0x18 /opt/esp-open-sdk/sdk/lib/libwpa.a(aes-internal-enc.o)
 .xt.prop       0x0000000000000000       0xe4 /opt/esp-open-sdk/sdk/lib/libwpa.a(aes-internal-enc.o)
 .irom0.literal
                0x0000000000000000        0x0 /opt/esp-open-sdk/sdk/lib/libwpa.a(aes-internal.o)
 .text          0x0000000000000000        0x0 /opt/esp-open-sdk/sdk/lib/libwpa.a(aes-internal.o)
 .data          0x0000000000000000        0x0 /opt/esp-open-sdk/sdk/lib/libwpa.a(aes-internal.o)
 .bss           0x0000000000000000        0x0 /opt/esp-open-sdk/sdk/lib/libwpa.a(aes-internal.o)
 .xt.lit        0x0000000000000000        0x8 /opt/esp-open-sdk/sdk/lib/libwpa.a(aes-internal.o)
 .xt.prop       0x0000000000000000       0xb4 /opt/esp-open-sdk/sdk/lib/libwpa.a(aes-internal.o)
 .group         0x0000000000000000       0x10 /opt/sming/Sming/compiler/lib//libsming.a(Timer.o)
 .literal._ZN5TimerC2Ev
                0x0000000000000000        0x0 /opt/sming/Sming/compiler/lib//libsming.a(Timer.o)
 .iram.literal  0x0000000000000000        0x0 /opt/sming/Sming/compiler/lib//libsming.a(Timer.o)
 .literal._ZN5TimerD2Ev
                0x0000000000000000        0x0 /opt/sming/Sming/compiler/lib//libsming.a(Timer.o)
 .literal._ZN5Timer9isStartedEv
                0x0000000000000000        0x0 /opt/sming/Sming/compiler/lib//libsming.a(Timer.o)
 .literal._ZN5Timer13getIntervalUsEv
                0x0000000000000000        0x0 /opt/sming/Sming/compiler/lib//libsming.a(Timer.o)
 .literal._ZN5Timer13getIntervalMsEv
                0x0000000000000000        0x0 /opt/sming/Sming/compiler/lib//libsming.a(Timer.o)
 .literal._ZN8DelegateIFvvEE4copyERKS1_
                0x0000000000000000        0x0 /opt/sming/Sming/compiler/lib//libsming.a(Timer.o)
 .text          0x0000000000000000        0x0 /opt/sming/Sming/compiler/lib//libsming.a(Timer.o)
 .data          0x0000000000000000        0x0 /opt/sming/Sming/compiler/lib//libsming.a(Timer.o)
 .bss           0x0000000000000000        0x0 /opt/sming/Sming/compiler/lib//libsming.a(Timer.o)
 .text._ZN5Timer9isStartedEv
                0x0000000000000000        0x5 /opt/sming/Sming/compiler/lib//libsming.a(Timer.o)
 .text._ZN5Timer13getIntervalUsEv
                0x0000000000000000       0x2b /opt/sming/Sming/compiler/lib//libsming.a(Timer.o)
 .text._ZN5Timer13getIntervalMsEv
                0x0000000000000000       0x24 /opt/sming/Sming/compiler/lib//libsming.a(Timer.o)
 .text._ZN8DelegateIFvvEE4copyERKS1_
                0x0000000000000000       0x3c /opt/sming/Sming/compiler/lib//libsming.a(Timer.o)
 .xt.lit        0x0000000000000000       0x60 /opt/sming/Sming/compiler/lib//libsming.a(Timer.o)
 .xt.prop       0x0000000000000000      0x354 /opt/sming/Sming/compiler/lib//libsming.a(Timer.o)
 .xt.prop._ZN8DelegateIFvvEE4copyERKS1_
                0x0000000000000000       0x24 /opt/sming/Sming/compiler/lib//libsming.a(Timer.o)
 .data          0x0000000000000000        0x0 /opt/sming/Sming/compiler/lib//libmicrogcc.a(_ashrdi3.o)
 .bss           0x0000000000000000        0x0 /opt/sming/Sming/compiler/lib//libmicrogcc.a(_ashrdi3.o)
 .xt.prop       0x0000000000000000       0x3c /opt/sming/Sming/compiler/lib//libmicrogcc.a(_ashrdi3.o)
 .data          0x0000000000000000        0x0 /opt/sming/Sming/compiler/lib//libmicrogcc.a(_divsf3.o)
 .bss           0x0000000000000000        0x0 /opt/sming/Sming/compiler/lib//libmicrogcc.a(_divsf3.o)
 .xt.lit        0x0000000000000000        0x8 /opt/sming/Sming/compiler/lib//libmicrogcc.a(_divsf3.o)
 .xt.prop       0x0000000000000000      0x168 /opt/sming/Sming/compiler/lib//libmicrogcc.a(_divsf3.o)
 .data          0x0000000000000000        0x0 /opt/sming/Sming/compiler/lib//libmicrogcc.a(_fixsfsi.o)
 .bss           0x0000000000000000        0x0 /opt/sming/Sming/compiler/lib//libmicrogcc.a(_fixsfsi.o)
 .xt.lit        0x0000000000000000        0x8 /opt/sming/Sming/compiler/lib//libmicrogcc.a(_fixsfsi.o)
 .xt.prop       0x0000000000000000       0x6c /opt/sming/Sming/compiler/lib//libmicrogcc.a(_fixsfsi.o)
 .irom0.literal
                0x0000000000000000        0x0 /opt/esp-open-sdk/sdk/lib/libnet80211.a(ieee80211_crypto_tkip.o)
 .text          0x0000000000000000        0x0 /opt/esp-open-sdk/sdk/lib/libnet80211.a(ieee80211_crypto_tkip.o)
 .data          0x0000000000000000        0x0 /opt/esp-open-sdk/sdk/lib/libnet80211.a(ieee80211_crypto_tkip.o)
 .xt.lit        0x0000000000000000       0x10 /opt/esp-open-sdk/sdk/lib/libnet80211.a(ieee80211_crypto_tkip.o)
 .xt.prop       0x0000000000000000       0xfc /opt/esp-open-sdk/sdk/lib/libnet80211.a(ieee80211_crypto_tkip.o)
 .irom0.literal
                0x0000000000000000        0x0 /opt/esp-open-sdk/sdk/lib/libnet80211.a(ieee80211_crypto_wep.o)
 .text          0x0000000000000000        0x0 /opt/esp-open-sdk/sdk/lib/libnet80211.a(ieee80211_crypto_wep.o)
 .data          0x0000000000000000        0x0 /opt/esp-open-sdk/sdk/lib/libnet80211.a(ieee80211_crypto_wep.o)
 .bss           0x0000000000000000        0x0 /opt/esp-open-sdk/sdk/lib/libnet80211.a(ieee80211_crypto_wep.o)
 .xt.lit        0x0000000000000000        0x8 /opt/esp-open-sdk/sdk/lib/libnet80211.a(ieee80211_crypto_wep.o)
 .xt.prop       0x0000000000000000       0x78 /opt/esp-open-sdk/sdk/lib/libnet80211.a(ieee80211_crypto_wep.o)

Memory Configuration

Name             Origin             Length             Attributes
dport0_0_seg     0x000000003ff00000 0x0000000000000010
dram0_0_seg      0x000000003ffe8000 0x0000000000014000
iram1_0_seg      0x0000000040100000 0x0000000000008000
irom0_0_seg      0x0000000040209000 0x0000000000042000
*default*        0x0000000000000000 0xffffffffffffffff

Linker script and memory map

START GROUP
LOAD /opt/sming/Sming/compiler/lib//libmicroc.a
LOAD /opt/sming/Sming/compiler/lib//libmicrogcc.a
LOAD /opt/esp-open-sdk/xtensa-lx106-elf/xtensa-lx106-elf/sysroot/usr/lib/libhal.a
LOAD /opt/esp-open-sdk/sdk/lib/libphy.a
LOAD /opt/esp-open-sdk/sdk/lib/libpp.a
LOAD /opt/esp-open-sdk/sdk/lib/libnet80211.a
LOAD /opt/esp-open-sdk/sdk/lib/liblwip.a
LOAD /opt/esp-open-sdk/sdk/lib/libwpa.a
LOAD /opt/esp-open-sdk/sdk/lib/libmain.a
LOAD /opt/sming/Sming/compiler/lib//libsming.a
LOAD /opt/esp-open-sdk/sdk/lib/libcrypto.a
LOAD /opt/esp-open-sdk/sdk/lib/libpwm.a
LOAD /opt/esp-open-sdk/sdk/lib/libsmartconfig.a
LOAD out/build/app_app.a
END GROUP
                [!provide]                        PROVIDE (_memmap_vecbase_reset, 0x40000000)
                0x0000000000000110                _memmap_cacheattr_wb_base = 0x110
                0x0000000000000110                _memmap_cacheattr_wt_base = 0x110
                0x0000000000000220                _memmap_cacheattr_bp_base = 0x220
                0x00000000fffff00f                _memmap_cacheattr_unused_mask = 0xfffff00f
                0x000000002222211f                _memmap_cacheattr_wb_trapnull = 0x2222211f
                0x000000002222211f                _memmap_cacheattr_wba_trapnull = 0x2222211f
                0x000000002222211f                _memmap_cacheattr_wbna_trapnull = 0x2222211f
                0x000000002222211f                _memmap_cacheattr_wt_trapnull = 0x2222211f
                0x000000002222222f                _memmap_cacheattr_bp_trapnull = 0x2222222f
                0x00000000fffff11f                _memmap_cacheattr_wb_strict = 0xfffff11f
                0x00000000fffff11f                _memmap_cacheattr_wt_strict = 0xfffff11f
                0x00000000fffff22f                _memmap_cacheattr_bp_strict = 0xfffff22f
                0x0000000022222112                _memmap_cacheattr_wb_allvalid = 0x22222112
                0x0000000022222112                _memmap_cacheattr_wt_allvalid = 0x22222112
                0x0000000022222222                _memmap_cacheattr_bp_allvalid = 0x22222222
                [!provide]                        PROVIDE (_memmap_cacheattr_reset, _memmap_cacheattr_wb_trapnull)

.dport0.rodata  0x000000003ff00000        0x0
                0x000000003ff00000                _dport0_rodata_start = ABSOLUTE (.)
 *(.dport0.rodata)
 *(.dport.rodata)
                0x000000003ff00000                _dport0_rodata_end = ABSOLUTE (.)

.dport0.literal
                0x000000003ff00000        0x0
                0x000000003ff00000                _dport0_literal_start = ABSOLUTE (.)
 *(.dport0.literal)
 *(.dport.literal)
                0x000000003ff00000                _dport0_literal_end = ABSOLUTE (.)

.dport0.data    0x000000003ff00000        0x0
                0x000000003ff00000                _dport0_data_start = ABSOLUTE (.)
 *(.dport0.data)
 *(.dport.data)
                0x000000003ff00000                _dport0_data_end = ABSOLUTE (.)

.data           0x000000003ffe8000      0x375
                0x000000003ffe8000                _data_start = ABSOLUTE (.)
 *(.data)
 .data          0x000000003ffe8000        0x4 /opt/esp-open-sdk/sdk/lib/libmain.a(nmi-vector.o)
                0x000000003ffe8000                _Pri_3_HandlerAddress
 .data          0x000000003ffe8004        0x1 /opt/esp-open-sdk/sdk/lib/libmain.a(app_main.o)
 *fill*         0x000000003ffe8005        0x3 
 .data          0x000000003ffe8008        0x6 /opt/esp-open-sdk/sdk/lib/libmain.a(user_interface.o)
                0x000000003ffe8009                timer2_ms_flag
                0x000000003ffe800a                dhcps_flag
                0x000000003ffe800b                dhcpc_flag
                0x000000003ffe800d                reconnect_internal
 *fill*         0x000000003ffe800e        0x2 
 .data          0x000000003ffe8010        0x1 /opt/esp-open-sdk/sdk/lib/libmain.a(eagle_lwip_if.o)
                0x000000003ffe8010                default_hostname
 *fill*         0x000000003ffe8011        0xf 
 .data          0x000000003ffe8020       0x53 /opt/esp-open-sdk/sdk/lib/libphy.a(phy_chip_v6.o)
                0x000000003ffe8022                tx_rf_ana_gain
                0x000000003ffe8050                rx_gain_swp
                0x000000003ffe8070                test_rffreq_txcap
 *fill*         0x000000003ffe8073        0x1 
 .data          0x000000003ffe8074        0x1 /opt/esp-open-sdk/sdk/lib/libphy.a(phy_chip_v6_cal.o)
                0x000000003ffe8074                rfcal_bb_atten_init
 *fill*         0x000000003ffe8075        0x3 
 .data          0x000000003ffe8078        0x4 /opt/esp-open-sdk/sdk/lib/libphy.a(phy_sleep.o)
                0x000000003ffe8078                chip_version
 .data          0x000000003ffe807c        0x1 /opt/esp-open-sdk/sdk/lib/libpp.a(pm.o)
 *fill*         0x000000003ffe807d        0x3 
 .data          0x000000003ffe8080        0x1 /opt/esp-open-sdk/sdk/lib/libpp.a(pm_for_bcn_only_mode.o)
 *fill*         0x000000003ffe8081        0x3 
 .data          0x000000003ffe8084       0x1c /opt/esp-open-sdk/sdk/lib/libpp.a(pp.o)
                0x000000003ffe8084                soft_wdt_interval
                0x000000003ffe8088                NoiseTimerInterval
                0x000000003ffe8090                sleep_start_wait_time
                0x000000003ffe8098                CanDoFreqCal
                0x000000003ffe809c                tcb
 .data          0x000000003ffe80a0       0x40 /opt/esp-open-sdk/sdk/lib/libpp.a(rate_control.o)
 .data          0x000000003ffe80e0      0x24c /opt/esp-open-sdk/sdk/lib/libpp.a(trc.o)
 .data          0x000000003ffe832c        0x8 /opt/esp-open-sdk/sdk/lib/libpp.a(wdev.o)
 .data          0x000000003ffe8334        0x1 /opt/esp-open-sdk/sdk/lib/libnet80211.a(ieee80211_hostap.o)
                0x000000003ffe8334                TmpSTAAPCloseAP
 *fill*         0x000000003ffe8335        0x3 
 .data          0x000000003ffe8338        0x1 /opt/esp-open-sdk/sdk/lib/libnet80211.a(wl_cnx.o)
 *fill*         0x000000003ffe8339        0x7 
 .data          0x000000003ffe8340       0x1c /opt/esp-open-sdk/sdk/lib/libnet80211.a(ieee80211_action.o)
 .data          0x000000003ffe835c        0x4 /opt/esp-open-sdk/sdk/lib/liblwip.a(dhcp.o)
 .data          0x000000003ffe8360        0x5 /opt/esp-open-sdk/sdk/lib/liblwip.a(dhcpserver.o)
                0x000000003ffe8360                dhcps_lease_time
 *fill*         0x000000003ffe8365        0x3 
 .data          0x000000003ffe8368        0x8 /opt/esp-open-sdk/sdk/lib/liblwip.a(tcp.o)
 *(.data.*)
 .data.cbc_printchar
                0x000000003ffe8370        0x4 /opt/sming/Sming/compiler/lib//libsming.a(m_printf.o)
                0x000000003ffe8370                cbc_printchar
 .data.state    0x000000003ffe8374        0x1 out/build/app_app.a(application.o)
                0x000000003ffe8374                state
 *(.gnu.linkonce.d.*)
 *(.data1)
 *(.sdata)
 *(.sdata.*)
 *(.gnu.linkonce.s.*)
 *(.sdata2)
 *(.sdata2.*)
 *(.gnu.linkonce.s2.*)
 *(.jcr)
                0x000000003ffe8375                _data_end = ABSOLUTE (.)

.rodata         0x000000003ffe8380      0x2f0
                0x000000003ffe8380                _rodata_start = ABSOLUTE (.)
 *(.sdk.version)
 .sdk.version   0x000000003ffe8380       0x10 /opt/esp-open-sdk/sdk/lib/libmain.a(app_main.o)
                0x000000003ffe8380                SDK_VERSION
 *(.rodata)
 .rodata        0x000000003ffe8390        0x8 /opt/esp-open-sdk/sdk/lib/libphy.a(phy_chip_v6.o)
 .rodata        0x000000003ffe8398        0x4 /opt/esp-open-sdk/sdk/lib/libpp.a(pp.o)
 .rodata        0x000000003ffe839c        0x8 /opt/esp-open-sdk/sdk/lib/libnet80211.a(ieee80211_hostap.o)
 .rodata        0x000000003ffe83a4        0x9 /opt/esp-open-sdk/sdk/lib/libnet80211.a(ieee80211_output.o)
 *fill*         0x000000003ffe83ad        0x3 
 .rodata        0x000000003ffe83b0        0x6 /opt/esp-open-sdk/sdk/lib/liblwip.a(etharp.o)
                0x000000003ffe83b0                ethbroadcast
 *(.rodata.*)
 *fill*         0x000000003ffe83b6        0x2 
 .rodata.str1.4
                0x000000003ffe83b8        0xc /opt/esp-open-sdk/sdk/lib/libmain.a(app_main.o)
 .rodata.str1.4
                0x000000003ffe83c4        0x4 /opt/esp-open-sdk/sdk/lib/libmain.a(ets_timer.o)
                                          0xc (size before relaxing)
 .rodata.str1.4
                0x000000003ffe83c8       0x1a /opt/esp-open-sdk/sdk/lib/libmain.a(mem_manager.o)
 *fill*         0x000000003ffe83e2        0x2 
 .rodata._ZL14EspDigitalPins
                0x000000003ffe83e4       0xc0 /opt/sming/Sming/compiler/lib//libsming.a(user_main.o)
 *fill*         0x000000003ffe84a4        0x4 
 .rodata._ZTV6VectorI8DelegateIFvvEEE
                0x000000003ffe84a8       0x1c /opt/sming/Sming/compiler/lib//libsming.a(System.o)
                0x000000003ffe84a8                _ZTV6VectorI8DelegateIFvvEEE
 *fill*         0x000000003ffe84c4        0x4 
 .rodata._ZTV6VectorIP19ISystemReadyHandlerE
                0x000000003ffe84c8       0x1c /opt/sming/Sming/compiler/lib//libsming.a(System.o)
                0x000000003ffe84c8                _ZTV6VectorIP19ISystemReadyHandlerE
 .rodata.str1.1
                0x000000003ffe84e4       0x21 /opt/sming/Sming/compiler/lib//libsming.a(stringconversion.o)
 *fill*         0x000000003ffe8505        0x3 
 .rodata._ZTV9IPAddress
                0x000000003ffe8508        0xc /opt/sming/Sming/compiler/lib//libsming.a(IPAddress.o)
                0x000000003ffe8508                _ZTV9IPAddress
 .rodata.str1.1
                0x000000003ffe8514       0x23 /opt/sming/Sming/compiler/lib//libsming.a(Digital.o)
 *fill*         0x000000003ffe8537        0x1 
 .rodata._ZL14EspDigitalPins
                0x000000003ffe8538       0xc0 /opt/sming/Sming/compiler/lib//libsming.a(Digital.o)
 .rodata.str1.1
                0x000000003ffe85f8        0xc /opt/sming/Sming/compiler/lib//libmicroc.a(abort.o)
 .rodata.str1.4
                0x000000003ffe8604        0x4 /opt/esp-open-sdk/sdk/lib/libpp.a(lmac.o)
                                          0xc (size before relaxing)
 .rodata.str1.4
                0x000000003ffe8608        0x3 /opt/esp-open-sdk/sdk/lib/libpp.a(pm.o)
                                          0xb (size before relaxing)
 *fill*         0x000000003ffe860b        0x1 
 .rodata.str1.4
                0x000000003ffe860c        0x4 /opt/esp-open-sdk/sdk/lib/libpp.a(pm_for_bcn_only_mode.o)
                                          0xc (size before relaxing)
 .rodata.str1.4
                0x000000003ffe8610        0x8 /opt/esp-open-sdk/sdk/lib/libpp.a(pp.o)
                                         0x10 (size before relaxing)
 .rodata.str1.4
                0x000000003ffe8618        0x4 /opt/esp-open-sdk/sdk/lib/libpp.a(wdev.o)
                                          0xc (size before relaxing)
 .rodata.str1.4
                0x000000003ffe861c        0x3 /opt/esp-open-sdk/sdk/lib/libnet80211.a(ieee80211_hostap.o)
                                          0x8 (size before relaxing)
 *fill*         0x000000003ffe861f        0x1 
 .rodata.str1.4
                0x000000003ffe8620        0x7 /opt/esp-open-sdk/sdk/lib/libnet80211.a(ieee80211_mesh_quick.o)
 .rodata.str1.4
                0x000000003ffe8627        0x4 /opt/esp-open-sdk/sdk/lib/libnet80211.a(ieee80211_sta.o)
 .rodata.str1.4
                0x000000003ffe8627        0x4 /opt/esp-open-sdk/sdk/lib/libnet80211.a(ieee80211_action_vendor.o)
 .rodata.str1.4
                0x000000003ffe8627        0x4 /opt/esp-open-sdk/sdk/lib/libnet80211.a(ieee80211_ie_vendor.o)
 .rodata.str1.4
                0x000000003ffe8627        0x7 /opt/esp-open-sdk/sdk/lib/liblwip.a(espconn_tcp.o)
                                          0x1 (size before relaxing)
 *fill*         0x000000003ffe8627        0x1 
 .rodata.str1.4
                0x000000003ffe8628       0x10 /opt/esp-open-sdk/sdk/lib/libwpa.a(wpa_debug.o)
                                          0xd (size before relaxing)
 *(.gnu.linkonce.r.*)
 *(.rodata1)
                0x000000003ffe8638                __XT_EXCEPTION_TABLE__ = ABSOLUTE (.)
 *(.xt_except_table)
 *(.gcc_except_table)
 *(.gnu.linkonce.e.*)
 *(.gnu.version_r)
 *(.eh_frame)
                0x000000003ffe8638                . = ((. + 0x3) & 0xfffffffffffffffc)
                0x000000003ffe8638                __dso_handle = ABSOLUTE (.)
                0x000000003ffe8638                __init_array_start = ABSOLUTE (.)
 *crtbegin.o(.ctors)
 *(EXCLUDE_FILE(*crtend.o) .ctors)
 .ctors         0x000000003ffe8638        0x4 /opt/sming/Sming/compiler/lib//libsming.a(user_main.o)
 .ctors         0x000000003ffe863c        0x4 /opt/sming/Sming/compiler/lib//libsming.a(System.o)
 .ctors         0x000000003ffe8640        0x4 /opt/sming/Sming/compiler/lib//libsming.a(m_printf.o)
 .ctors         0x000000003ffe8644        0x4 /opt/sming/Sming/compiler/lib//libsming.a(IPAddress.o)
 .ctors         0x000000003ffe8648        0x4 /opt/sming/Sming/compiler/lib//libsming.a(Print.o)
 .ctors         0x000000003ffe864c        0x4 /opt/sming/Sming/compiler/lib//libsming.a(WString.o)
 .ctors         0x000000003ffe8650        0x4 /opt/sming/Sming/compiler/lib//libsming.a(Interrupts.o)
 .ctors         0x000000003ffe8654        0x4 /opt/sming/Sming/compiler/lib//libsming.a(Digital.o)
 .ctors         0x000000003ffe8658        0x4 out/build/app_app.a(application.o)
 *(SORT(.ctors.*))
 *(.ctors)
                0x000000003ffe865c                __init_array_end = ABSOLUTE (.)
 *crtbegin.o(.dtors)
 *(EXCLUDE_FILE(*crtend.o) .dtors)
 .dtors         0x000000003ffe865c        0x4 /opt/sming/Sming/compiler/lib//libsming.a(System.o)
 .dtors         0x000000003ffe8660        0x4 /opt/sming/Sming/compiler/lib//libsming.a(Interrupts.o)
 .dtors         0x000000003ffe8664        0x4 out/build/app_app.a(application.o)
 *(SORT(.dtors.*))
 *(.dtors)
                0x000000003ffe8668                __XT_EXCEPTION_DESCS__ = ABSOLUTE (.)
 *(.xt_except_desc)
 *(.gnu.linkonce.h.*)
                0x000000003ffe8668                __XT_EXCEPTION_DESCS_END__ = ABSOLUTE (.)
 *(.xt_except_desc_end)
 *(.dynamic)
 *(.gnu.version_d)
                0x000000003ffe8668                . = ALIGN (0x4)
                0x000000003ffe8668                _bss_table_start = ABSOLUTE (.)
                0x000000003ffe8668        0x4 LONG 0x3ffe8670 _bss_start
                0x000000003ffe866c        0x4 LONG 0x3ffeea18 _bss_end
                0x000000003ffe8670                _bss_table_end = ABSOLUTE (.)
                0x000000003ffe8670                _rodata_end = ABSOLUTE (.)

.bss            0x000000003ffe8670     0x63a8
                0x000000003ffe8670                . = ALIGN (0x8)
                0x000000003ffe8670                _bss_start = ABSOLUTE (.)
 *(.dynsbss)
 *(.sbss)
 *(.sbss.*)
 *(.gnu.linkonce.sb.*)
 *(.scommon)
 *(.sbss2)
 *(.sbss2.*)
 *(.gnu.linkonce.sb2.*)
 *(.dynbss)
 *(.bss)
 .bss           0x000000003ffe8670      0x1c0 /opt/esp-open-sdk/sdk/lib/libmain.a(nmi-vector.o)
 .bss           0x000000003ffe8830       0x41 /opt/esp-open-sdk/sdk/lib/libmain.a(app_main.o)
                0x000000003ffe8834                info
                0x000000003ffe8858                lwip_timer_interval
                0x000000003ffe885c                check_timeouts_timer
                0x000000003ffe8870                user_init_flag
 *fill*         0x000000003ffe8871        0xf 
 .bss           0x000000003ffe8880       0x30 /opt/esp-open-sdk/sdk/lib/libmain.a(ets_timer.o)
                0x000000003ffe8880                dbg_timer_flag
                0x000000003ffe8884                timer_list
                0x000000003ffe8888                debug_timer
                0x000000003ffe888c                debug_timerfn
 .bss           0x000000003ffe88b0       0x3c /opt/esp-open-sdk/sdk/lib/libmain.a(mem_manager.o)
 .bss           0x000000003ffe88ec        0x4 /opt/esp-open-sdk/sdk/lib/libmain.a(spi_flash.o)
                0x000000003ffe88ec                flash_read
 .bss           0x000000003ffe88f0      0x242 /opt/esp-open-sdk/sdk/lib/libmain.a(user_interface.o)
                0x000000003ffe89e7                deep_sleep_flag
                0x000000003ffe89e8                cpu_overclock
                0x000000003ffe89ec                event_cb
                0x000000003ffe89f0                status_led_output_level
                0x000000003ffe89f4                done_cb
                0x000000003ffe89f8                rst_if
                0x000000003ffe8a14                default_interface
                0x000000003ffe8a15                OpmodChgIsOnGoing
                0x000000003ffe8a18                promiscuous_cb
                0x000000003ffe8a30                event_TaskQueue
 *fill*         0x000000003ffe8b32        0x2 
 .bss           0x000000003ffe8b34        0xc /opt/esp-open-sdk/sdk/lib/libmain.a(eagle_lwip_if.o)
                0x000000003ffe8b34                hostname
 .bss           0x000000003ffe8b40        0x4 /opt/esp-open-sdk/sdk/lib/libphy.a(phy.o)
 .bss           0x000000003ffe8b44        0x2 /opt/esp-open-sdk/sdk/lib/libphy.a(phy_chip_v6_ana.o)
                0x000000003ffe8b44                tout_dis_txpwr_track
                0x000000003ffe8b45                sleep_mode_flag
 *fill*         0x000000003ffe8b46        0x2 
 .bss           0x000000003ffe8b48      0x15b /opt/esp-open-sdk/sdk/lib/libphy.a(phy_chip_v6.o)
                0x000000003ffe8b48                g_phyFuns
                0x000000003ffe8b4c                rxiq_compute_num
                0x000000003ffe8b50                rx_table_renew_en
                0x000000003ffe8b54                check_result
                0x000000003ffe8b58                chip6_sleep_params
                0x000000003ffe8bec                chip6_phy_init_ctrl
                0x000000003ffe8c60                phy_freq_offset
                0x000000003ffe8c62                do_pwctrl_flag
                0x000000003ffe8c63                txbk_dpdby_flag
                0x000000003ffe8c65                sw_scan_mode
                0x000000003ffe8c66                rxmax_ext_level
                0x000000003ffe8c68                phy_rx_gain_dc_table
                0x000000003ffe8c7c                periodic_cal_dc_num
                0x000000003ffe8c80                periodic_cal_flag
                0x000000003ffe8c81                bbpll_cal_flag
                0x000000003ffe8c82                phy_in_most_power
                0x000000003ffe8c83                init_rf_no_cal
                0x000000003ffe8c84                test_print_time
                0x000000003ffe8c88                phy_rx_gain_dc_flag
                0x000000003ffe8c89                phy_in_vdd33_offset
                0x000000003ffe8c8a                phy_set_most_tpw_disbg
                0x000000003ffe8c8b                phy_set_most_tpw_index
                0x000000003ffe8c8c                adc_rand_noise
                0x000000003ffe8c90                dpd_bypass_original
                0x000000003ffe8c92                phy_txpwr_diff_flash
                0x000000003ffe8c98                noise_array
 *fill*         0x000000003ffe8ca3        0x1 
 .bss           0x000000003ffe8ca4        0x9 /opt/esp-open-sdk/sdk/lib/libphy.a(phy_chip_v6_cal.o)
                0x000000003ffe8ca4                phy_tx_power_out
                0x000000003ffe8ca6                phy_tx_pwr_error
                0x000000003ffe8ca8                tx_pwctrl_track_num
                0x000000003ffe8ca9                rxiq_cover_fail_num
                0x000000003ffe8caa                phy_meas_freq_offset
                0x000000003ffe8cac                tx_pwctrl_pk_num
 *fill*         0x000000003ffe8cad        0x3 
 .bss           0x000000003ffe8cb0        0x7 /opt/esp-open-sdk/sdk/lib/libphy.a(phy_sleep.o)
                0x000000003ffe8cb0                periodic_cal_sat
                0x000000003ffe8cb2                lslp_mem_opt_8266
                0x000000003ffe8cb4                software_slp_reject
                0x000000003ffe8cb5                SDIO_slp_reject
                0x000000003ffe8cb6                hardware_reject
 *fill*         0x000000003ffe8cb7        0x9 
 .bss           0x000000003ffe8cc0       0x40 /opt/esp-open-sdk/sdk/lib/libpp.a(if_hwctrl.o)
                0x000000003ffe8cc0                interface_mask
                0x000000003ffe8ce0                if_ctrl
 .bss           0x000000003ffe8d00      0x150 /opt/esp-open-sdk/sdk/lib/libpp.a(lmac.o)
                0x000000003ffe8d04                lmacConfMib
                0x000000003ffe8d28                our_tx_eb
 .bss           0x000000003ffe8e50      0x11a /opt/esp-open-sdk/sdk/lib/libpp.a(pm.o)
                0x000000003ffe8e50                pmc
                0x000000003ffe8f30                flash_tmp
 *fill*         0x000000003ffe8f6a        0x2 
 .bss           0x000000003ffe8f6c       0x34 /opt/esp-open-sdk/sdk/lib/libpp.a(pm_for_bcn_only_mode.o)
 .bss           0x000000003ffe8fa0      0x322 /opt/esp-open-sdk/sdk/lib/libpp.a(pp.o)
                0x000000003ffe8fb8                pend_flag_noise_check
                0x000000003ffe8fc0                pend_flag_periodic_cal
                0x000000003ffe8fd8                idle_timer_reopen_flag
                0x000000003ffe8fda                dbg_stop_sw_wdt
                0x000000003ffe8fdb                dbg_stop_hw_wdt
                0x000000003ffe8fdd                total_buffed_eb_num
                0x000000003ffe8fe0                HighestFreqOffsetInOneChk
                0x000000003ffe8fe2                LowestFreqOffsetInOneChk
                0x000000003ffe8fe4                DefFreqCalTimer
                0x000000003ffe8ff8                PktNumInOneChk
                0x000000003ffe9180                buffed_eb_arr
 *fill*         0x000000003ffe92c2        0xe 
 .bss           0x000000003ffe92d0      0x100 /opt/esp-open-sdk/sdk/lib/libpp.a(rate_control.o)
 .bss           0x000000003ffe93d0      0x46c /opt/esp-open-sdk/sdk/lib/libpp.a(trc.o)
 *fill*         0x000000003ffe983c        0x4 
 .bss           0x000000003ffe9840     0x2f88 /opt/esp-open-sdk/sdk/lib/libpp.a(wdev.o)
                0x000000003ffe9840                wDevCtrl
                0x000000003ffe99e8                WdevTimOffSet
 *fill*         0x000000003ffec7c8        0x8 
 .bss           0x000000003ffec7d0      0xaa4 /opt/esp-open-sdk/sdk/lib/libpp.a(esf_buf.o)
 .bss           0x000000003ffed274      0x67c /opt/esp-open-sdk/sdk/lib/libnet80211.a(ieee80211.o)
                0x000000003ffed274                g_ic
 .bss           0x000000003ffed8f0       0x56 /opt/esp-open-sdk/sdk/lib/libnet80211.a(ieee80211_hostap.o)
                0x000000003ffed8f0                BcnEb_update
                0x000000003ffed8fd                BcnWithMcastSendStart
                0x000000003ffed8fe                BcnWithMcastSendCnt
                0x000000003ffed918                PendFreeBcnEb
                0x000000003ffed91c                ApFreqCalTimer
                0x000000003ffed930                APRecvBcnStartTick
 *fill*         0x000000003ffed946        0x2 
 .bss           0x000000003ffed948       0xc8 /opt/esp-open-sdk/sdk/lib/libnet80211.a(ieee80211_scan.o)
                0x000000003ffed948                gScanStruct
                0x000000003ffed9f4                connect_scan_flag
                0x000000003ffed9f5                FreqCalCntForScan
                0x000000003ffed9f6                TestStaFreqCalValInput
                0x000000003ffed9f8                auth_type
                0x000000003ffed9fa                scannum
 .bss           0x000000003ffeda10       0x10 /opt/esp-open-sdk/sdk/lib/libnet80211.a(ieee80211_sta.o)
 .bss           0x000000003ffeda20       0x3c /opt/esp-open-sdk/sdk/lib/libnet80211.a(wl_chm.o)
 *fill*         0x000000003ffeda5c        0x4 
 .bss           0x000000003ffeda60      0x37e /opt/esp-open-sdk/sdk/lib/libnet80211.a(wl_cnx.o)
                0x000000003ffeddc0                sta_con_timer
                0x000000003ffeddd4                backup_ni_connect_status
                0x000000003ffeddd8                g_cnx_probe_rc_list_cb
                0x000000003ffedddc                reconnect_flag
                0x000000003ffedddd                no_ap_found_index
 *fill*         0x000000003ffeddde        0x2 
 .bss           0x000000003ffedde0       0x10 /opt/esp-open-sdk/sdk/lib/libnet80211.a(ieee80211_action_vendor.o)
 .bss           0x000000003ffeddf0       0x38 /opt/esp-open-sdk/sdk/lib/liblwip.a(dhcp.o)
                0x000000003ffeddf0                dhcp_rx_options_given
                0x000000003ffede00                dhcp_rx_options_val
 .bss           0x000000003ffede28       0x24 /opt/esp-open-sdk/sdk/lib/liblwip.a(dhcpserver.o)
 *fill*         0x000000003ffede4c        0x4 
 .bss           0x000000003ffede50      0x480 /opt/esp-open-sdk/sdk/lib/liblwip.a(dns.o)
 .bss           0x000000003ffee2d0       0x78 /opt/esp-open-sdk/sdk/lib/liblwip.a(espconn_tcp.o)
                0x000000003ffee2d0                espconn_TaskQueue
 *fill*         0x000000003ffee348        0x8 
 .bss           0x000000003ffee350      0x100 /opt/esp-open-sdk/sdk/lib/liblwip.a(etharp.o)
                0x000000003ffee354                ethzero
 .bss           0x000000003ffee450       0x10 /opt/esp-open-sdk/sdk/lib/liblwip.a(ip_addr.o)
 .bss           0x000000003ffee460       0x12 /opt/esp-open-sdk/sdk/lib/liblwip.a(ip.o)
                0x000000003ffee460                current_iphdr_dest
                0x000000003ffee464                current_iphdr_src
                0x000000003ffee468                current_netif
                0x000000003ffee46c                current_header
 *fill*         0x000000003ffee472        0x2 
 .bss           0x000000003ffee474        0x9 /opt/esp-open-sdk/sdk/lib/liblwip.a(netif.o)
                0x000000003ffee474                netif_list
                0x000000003ffee478                netif_default
 *fill*         0x000000003ffee47d        0x3 
 .bss           0x000000003ffee480        0x4 /opt/esp-open-sdk/sdk/lib/liblwip.a(raw.o)
 .bss           0x000000003ffee484       0x34 /opt/esp-open-sdk/sdk/lib/liblwip.a(tcp_in.o)
                0x000000003ffee4b4                tcp_input_pcb
 .bss           0x000000003ffee4b8       0x1c /opt/esp-open-sdk/sdk/lib/liblwip.a(tcp.o)
                0x000000003ffee4bc                tcp_active_pcbs
                0x000000003ffee4c0                tcp_tmp_pcb
                0x000000003ffee4c4                tcp_tw_pcbs
                0x000000003ffee4c8                tcp_bound_pcbs
                0x000000003ffee4cc                tcp_listen_pcbs
                0x000000003ffee4d0                tcp_ticks
 .bss           0x000000003ffee4d4        0xc /opt/esp-open-sdk/sdk/lib/liblwip.a(timers.o)
 .bss           0x000000003ffee4e0        0x4 /opt/esp-open-sdk/sdk/lib/liblwip.a(udp.o)
                0x000000003ffee4e0                udp_pcbs
 *fill*         0x000000003ffee4e4        0xc 
 .bss           0x000000003ffee4f0      0x104 /opt/esp-open-sdk/sdk/lib/liblwip.a(espconn.o)
                0x000000003ffee4f0                plink_active
                0x000000003ffee4f4                pserver_list
                0x000000003ffee500                premot
                0x000000003ffee5c0                pktinfo
 .bss           0x000000003ffee5f4        0xc /opt/esp-open-sdk/sdk/lib/liblwip.a(igmp.o)
 .bss           0x000000003ffee600      0x26a /opt/esp-open-sdk/sdk/lib/libwpa.a(wpa.o)
 *fill*         0x000000003ffee86a        0x6 
 .bss           0x000000003ffee870        0x8 /opt/esp-open-sdk/sdk/lib/libnet80211.a(ieee80211_crypto_tkip.o)
 *(.bss.*)
 .bss._ZL5ESP01
                0x000000003ffee878       0x30 /opt/sming/Sming/compiler/lib//libsming.a(user_main.o)
 .bss._ZL11INADDR_NONE
                0x000000003ffee8a8        0x8 /opt/sming/Sming/compiler/lib//libsming.a(user_main.o)
 .bss.System    0x000000003ffee8b0       0x2c /opt/sming/Sming/compiler/lib//libsming.a(System.o)
                0x000000003ffee8b0                System
 .bss._ZL5ESP01
                0x000000003ffee8dc       0x30 /opt/sming/Sming/compiler/lib//libsming.a(m_printf.o)
 .bss._ZL11INADDR_NONE
                0x000000003ffee90c        0x8 /opt/sming/Sming/compiler/lib//libsming.a(m_printf.o)
 .bss._ZL5ESP01
                0x000000003ffee914       0x30 /opt/sming/Sming/compiler/lib//libsming.a(IPAddress.o)
 .bss._ZL11INADDR_NONE
                0x000000003ffee944        0x8 /opt/sming/Sming/compiler/lib//libsming.a(IPAddress.o)
 .bss._ZL11INADDR_NONE
                0x000000003ffee94c        0x8 /opt/sming/Sming/compiler/lib//libsming.a(Print.o)
 .bss._ZL11INADDR_NONE
                0x000000003ffee954        0x8 /opt/sming/Sming/compiler/lib//libsming.a(WString.o)
 .bss._delegateFunctionList
                0x000000003ffee95c       0x40 /opt/sming/Sming/compiler/lib//libsming.a(Interrupts.o)
                0x000000003ffee95c                _delegateFunctionList
 .bss._ZL11INADDR_NONE
                0x000000003ffee99c        0x8 /opt/sming/Sming/compiler/lib//libsming.a(Interrupts.o)
 .bss._ZL11INADDR_NONE
                0x000000003ffee9a4        0x8 /opt/sming/Sming/compiler/lib//libsming.a(Digital.o)
 *fill*         0x000000003ffee9ac        0x4 
 .bss.procTimer
                0x000000003ffee9b0       0x30 out/build/app_app.a(application.o)
                0x000000003ffee9b0                procTimer
 .bss._ZL5ESP01
                0x000000003ffee9e0       0x30 out/build/app_app.a(application.o)
 .bss._ZL11INADDR_NONE
                0x000000003ffeea10        0x8 out/build/app_app.a(application.o)
 *(.gnu.linkonce.b.*)
 *(COMMON)
                0x000000003ffeea18                . = ALIGN (0x8)
                0x000000003ffeea18                _bss_end = ABSOLUTE (.)
                0x000000003ffeea18                _heap_start = ABSOLUTE (.)

.irom0.text     0x0000000040209000    0x2f37c
                0x0000000040209000                _irom0_text_start = ABSOLUTE (.)
 *(.irom0.literal .irom.literal .irom.text.literal .irom0.text .irom.text)
 .irom0.text    0x0000000040209000      0xa79 /opt/esp-open-sdk/sdk/lib/libmain.a(app_main.o)
                                        0xc9d (size before relaxing)
                0x00000000402091e8                wdt_init
                0x0000000040209290                user_uart_wait_tx_fifo_empty
                0x0000000040209544                user_rf_pre_init
 *fill*         0x0000000040209a79        0x3 
 .irom0.text    0x0000000040209a7c      0x186 /opt/esp-open-sdk/sdk/lib/libmain.a(ets_timer.o)
                                        0x1b2 (size before relaxing)
                0x0000000040209a84                ets_timer_done
                0x0000000040209ad0                ets_timer_handler_isr
                0x0000000040209ba0                ets_timer_init
 *fill*         0x0000000040209c02        0x2 
 .irom0.text    0x0000000040209c04       0xec /opt/esp-open-sdk/sdk/lib/libmain.a(mem_manager.o)
                                         0xf8 (size before relaxing)
                0x0000000040209c04                check_memleak_debug_enable
                0x0000000040209c70                xPortGetFreeHeapSize
                0x0000000040209c78                vPortInitialiseBlocks
 .irom0.text    0x0000000040209cf0     0x3549 /opt/esp-open-sdk/sdk/lib/libmain.a(user_interface.o)
                                       0x3f9d (size before relaxing)
                0x0000000040209cf4                system_set_os_print
                0x0000000040209d04                system_get_os_print
                0x0000000040209ecc                system_pp_recycle_rx_pkt
                0x0000000040209ee8                system_adc_read
                0x0000000040209f28                system_adc_read_fast
                0x0000000040209f88                system_get_vdd33
                0x0000000040209fb4                system_restart_hook
                0x0000000040209fcc                system_restart_local
                0x000000004020a0ac                system_restart
                0x000000004020a108                system_restore
                0x000000004020a170                system_get_flash_size_map
                0x000000004020a190                system_get_boot_version
                0x000000004020a1c8                system_get_test_result
                0x000000004020a1f0                system_get_userbin_addr
                0x000000004020a288                system_get_boot_mode
                0x000000004020a2b8                system_restart_enhance
                0x000000004020a3e8                system_upgrade_userbin_set
                0x000000004020a434                system_upgrade_userbin_check
                0x000000004020a474                system_upgrade_flag_set
                0x000000004020a488                system_upgrade_flag_check
                0x000000004020a4b0                system_upgrade_reboot
                0x000000004020a5e4                system_deep_sleep_instant
                0x000000004020a77c                system_deep_sleep
                0x000000004020a7dc                system_deep_sleep_set_option
                0x000000004020a7f8                system_phy_temperature_alert
                0x000000004020a80c                system_phy_set_max_tpw
                0x000000004020a820                system_phy_set_tpw_via_vdd33
                0x000000004020a834                system_phy_set_rfoption
                0x000000004020a848                system_phy_set_powerup_option
                0x000000004020a860                system_update_cpu_freq
                0x000000004020a8bc                system_get_cpu_freq
                0x000000004020a8d4                system_overclock
                0x000000004020a900                system_restoreclock
                0x000000004020a930                system_timer_reinit
                0x000000004020a948                system_relative_time
                0x000000004020a96c                system_station_got_ip_set
                0x000000004020aa98                system_print_meminfo
                0x000000004020aaf8                system_get_free_heap_size
                0x000000004020ab10                system_get_chip_id
                0x000000004020ab34                system_rtc_clock_cali_proc
                0x000000004020ab48                system_get_rtc_time
                0x000000004020ab5c                system_mktime
                0x000000004020ac2c                system_init_done_cb
                0x000000004020ac34                system_get_rst_info
                0x000000004020ac3c                system_get_data_of_array_8
                0x000000004020ac60                system_get_data_of_array_16
                0x000000004020ac88                system_get_string_from_flash
                0x000000004020acf4                wifi_softap_dhcps_start
                0x000000004020ad3c                wifi_softap_dhcps_stop
                0x000000004020ad7c                wifi_softap_dhcps_status
                0x000000004020ad84                wifi_station_dhcpc_start
                0x000000004020addc                wifi_station_dhcpc_stop
                0x000000004020ae1c                wifi_station_dhcpc_event
                0x000000004020ae90                wifi_station_dhcpc_set_maxtry
                0x000000004020aea0                wifi_station_dhcpc_status
                0x000000004020af18                wifi_get_opmode
                0x000000004020af2c                wifi_get_opmode_default
                0x000000004020afa8                wifi_get_broadcast_if
                0x000000004020afe4                wifi_set_broadcast_if
                0x000000004020b160                wifi_set_opmode
                0x000000004020b174                wifi_set_opmode_current
                0x000000004020b188                system_get_checksum
                0x000000004020b1d0                wifi_param_save_protect_with_check
                0x000000004020b28c                system_param_save_with_protect
                0x000000004020b334                system_save_sys_param
                0x000000004020b360                system_param_load
                0x000000004020b498                wifi_station_get_config
                0x000000004020b4ac                wifi_station_get_config_default
                0x000000004020b4cc                wifi_station_get_ap_info
                0x000000004020b584                wifi_station_ap_number_set
                0x000000004020b918                wifi_station_set_config
                0x000000004020b930                wifi_station_set_config_current
                0x000000004020b948                wifi_station_restore_config
                0x000000004020b960                wifi_station_get_current_ap_id
                0x000000004020b974                wifi_station_ap_check
                0x000000004020b9bc                wifi_station_ap_change
                0x000000004020bae8                wifi_station_scan
                0x000000004020bb34                wifi_station_get_auto_connect
                0x000000004020bb48                wifi_station_set_auto_connect
                0x000000004020bb98                wifi_station_save_pmk2cache
                0x000000004020bc4c                wifi_station_connect
                0x000000004020bce0                wifi_station_disconnect
                0x000000004020bda0                wifi_station_get_connect_status
                0x000000004020bdd0                wifi_station_set_reconnect_policy
                0x000000004020bde8                wifi_station_get_reconnect_policy
                0x000000004020bdf0                wifi_station_get_rssi
                0x000000004020be40                wifi_station_set_default_hostname
                0x000000004020bea8                wifi_station_get_hostname
                0x000000004020bed8                wifi_station_set_hostname
                0x000000004020bf78                wifi_softap_cacl_mac
                0x000000004020bfe8                wifi_softap_set_default_ssid
                0x000000004020c1c8                wifi_softap_get_config
                0x000000004020c1dc                wifi_softap_get_config_default
                0x000000004020c530                wifi_softap_set_config
                0x000000004020c544                wifi_softap_set_config_current
                0x000000004020c558                wifi_softap_set_station_info
                0x000000004020c5c4                wifi_softap_get_station_info
                0x000000004020c674                wifi_softap_free_station_info
                0x000000004020c6bc                wifi_softap_get_station_num
                0x000000004020c710                wifi_softap_deauth
                0x000000004020c7c0                wifi_softap_get_beacon_only_mode
                0x000000004020c7d4                wifi_softap_set_beacon_only_mode
                0x000000004020c838                wifi_register_user_ie_manufacturer_recv_cb
                0x000000004020c84c                wifi_unregister_user_ie_manufacturer_recv_cb
                0x000000004020c880                wifi_set_user_ie
                0x000000004020c990                wifi_get_user_ie
                0x000000004020c9c4                wifi_get_phy_mode
                0x000000004020c9cc                wifi_set_phy_mode
                0x000000004020ca94                wifi_set_sleep_type
                0x000000004020cab0                wifi_get_sleep_type
                0x000000004020cac8                wifi_get_channel
                0x000000004020cae0                wifi_set_channel
                0x000000004020cb24                wifi_promiscuous_set_mac
                0x000000004020cb84                wifi_promiscuous_enable
                0x000000004020cc68                wifi_set_promiscuous_rx_cb
                0x000000004020cc78                wifi_get_ip_info
                0x000000004020ccf8                wifi_set_ip_info
                0x000000004020cd6c                wifi_get_macaddr
                0x000000004020cdcc                wifi_set_macaddr
                0x000000004020cee8                wifi_enable_6m_rate
                0x000000004020cef0                wifi_get_user_fixed_rate
                0x000000004020cf10                wifi_set_user_fixed_rate
                0x000000004020cf30                wifi_set_user_sup_rate
                0x000000004020cf6c                wifi_set_user_rate_limit
                0x000000004020cf90                wifi_get_user_limit_rate_mask
                0x000000004020cf98                wifi_set_user_limit_rate_mask
                0x000000004020cfb0                wifi_register_send_pkt_freedom_cb
                0x000000004020cfc4                wifi_unregister_send_pkt_freedom_cb
                0x000000004020cfd0                wifi_send_pkt_freedom
                0x000000004020d01c                wifi_rfid_locp_recv_open
                0x000000004020d030                wifi_rfid_locp_recv_close
                0x000000004020d044                wifi_register_rfid_locp_recv_cb
                0x000000004020d058                wifi_unregister_rfid_locp_recv_cb
                0x000000004020d070                wifi_status_led_install
                0x000000004020d0a4                wifi_status_led_uninstall
                0x000000004020d0c8                wifi_set_status_led_output_level
                0x000000004020d11c                wifi_set_event_handler_cb
                0x000000004020d164                system_os_task
                0x000000004020d1a0                system_uart_swap
                0x000000004020d200                system_uart_de_swap
                0x000000004020d234                system_get_sdk_version
 *fill*         0x000000004020d239        0x3 
 .irom0.text    0x000000004020d23c      0x610 /opt/esp-open-sdk/sdk/lib/libmain.a(eagle_lib.o)
                                        0x620 (size before relaxing)
                0x000000004020d240                divide
                0x000000004020d27c                skip_atoi
                0x000000004020d3fc                ets_vsnprintf
                0x000000004020d75c                ets_vsprintf
                0x000000004020d780                ets_sprintf
                0x000000004020d7a8                ets_strcat
                0x000000004020d7c8                ets_strrchr
                0x000000004020d7f4                ets_strchr
                0x000000004020d80c                bit_popcount
                0x000000004020d828                ets_snprintf
 .irom0.text    0x000000004020d84c      0x31e /opt/esp-open-sdk/sdk/lib/libmain.a(eagle_lwip_if.o)
                                        0x3e6 (size before relaxing)
                0x000000004020d904                eagle_lwip_if_alloc
                0x000000004020dac4                eagle_lwip_if_free
                0x000000004020db48                eagle_lwip_getif
 *fill*         0x000000004020db6a        0x2 
 .irom0.literal
                0x000000004020db6c        0x4 /opt/sming/Sming/compiler/lib//libmicroc.a(malloc.o)
                                         0x14 (size before relaxing)
 .irom0.literal
                0x000000004020db70        0x4 /opt/sming/Sming/compiler/lib//libmicroc.a(abort.o)
                                          0x8 (size before relaxing)
 .irom0.literal
                0x000000004020db74        0x8 /opt/sming/Sming/compiler/lib//libmicrogcc.a(_divsf3.o)
                                         0x10 (size before relaxing)
 .irom0.text    0x000000004020db7c       0x65 /opt/sming/Sming/compiler/lib//libmicroc.a(malloc.o)
                0x000000004020db7c                malloc
                0x000000004020db90                free
                0x000000004020dba4                realloc
                0x000000004020dbb8                zalloc
                0x000000004020dbcc                calloc
 *fill*         0x000000004020dbe1        0x3 
 .irom0.text    0x000000004020dbe4       0x11 /opt/sming/Sming/compiler/lib//libmicroc.a(abort.o)
                0x000000004020dbe4                abort
 *fill*         0x000000004020dbf5        0x3 
 .irom0.text    0x000000004020dbf8       0xfa /opt/esp-open-sdk/sdk/lib/libphy.a(phy.o)
                                        0x11e (size before relaxing)
                0x000000004020dbfc                rf_init
                0x000000004020dc18                bb_init
                0x000000004020dc30                phy_init
                0x000000004020dc60                RFChannelSel
                0x000000004020dc7c                phy_delete_channel
                0x000000004020dc94                phy_enable_agc
                0x000000004020dcac                phy_disable_agc
                0x000000004020dcc4                phy_initialize_bb
                0x000000004020dcdc                phy_set_sense
 *fill*         0x000000004020dcf2        0x2 
 .irom0.text    0x000000004020dcf4     0x176f /opt/esp-open-sdk/sdk/lib/libphy.a(phy_chip_v6_ana.o)
                                       0x1973 (size before relaxing)
                0x000000004020dcf8                ram_pbus_set_rxgain
                0x000000004020ddd0                ram_pbus_debugmode
                0x000000004020de84                ram_pbus_xpd_tx_on
                0x000000004020def0                set_rf_freq_offset
                0x000000004020df60                chip_v6_rxmax_ext_ana
                0x000000004020e0b4                ram_chip_v6_rx_init
                0x000000004020e0e8                tsen_meas
                0x000000004020e198                readvdd33
                0x000000004020e364                txpwr_offset
                0x000000004020e420                set_txcap_reg
                0x000000004020e4a0                ram_ana_inf_gating_en
                0x000000004020e600                ram_restart_cal
                0x000000004020e66c                wait_rfpll_cal_end
                0x000000004020e700                ram_rfpll_set_freq
                0x000000004020e808                ram_set_channel_freq
                0x000000004020eb04                chip_60_set_channel
                0x000000004020eca4                chip_v6_set_chan_offset
                0x000000004020ed04                chip_v6_set_chan
                0x000000004020edac                chip_v6_set_chan_wakeup
                0x000000004020ee30                chip_v6_rf_init
                0x000000004020f094                low_power_set
                0x000000004020f0e4                test_tout
                0x000000004020f25c                check_data_flag
                0x000000004020f27c                phy_get_check_flag
                0x000000004020f3b0                phy_get_vdd33
 *fill*         0x000000004020f463        0x1 
 .irom0.text    0x000000004020f464     0x3e98 /opt/esp-open-sdk/sdk/lib/libphy.a(phy_chip_v6.o)
                                       0x453c (size before relaxing)
                0x000000004020f464                ram_tx_mac_enable
                0x000000004020f468                ram_tx_mac_disable
                0x000000004020f46c                rtc_mem_backup
                0x000000004020f49c                rtc_mem_recovery
                0x000000004020f4cc                set_cal_rxdc
                0x000000004020f580                set_rx_gain_cal_iq
                0x000000004020f8dc                gen_rx_gain_table
                0x000000004020fa34                pbus_set_rxbbgain
                0x000000004020fab4                set_rx_gain_testchip_50
                0x000000004020fde8                ram_get_corr_power
                0x000000004020fed8                check_data_func
                0x000000004020fef8                do_noisefloor_lsleep_v50
                0x000000004020ff2c                do_noisefloor
                0x000000004020ff9c                start_dig_rx
                0x000000004020ffe0                stop_dig_rx
                0x000000004021000c                chip_v6_set_chanfreq
                0x000000004021003c                tx_cap_init
                0x0000000040210228                target_power_add_backoff
                0x0000000040210258                tx_pwctrl_init_cal
                0x00000000402103d0                tx_atten_set_interp
                0x0000000040210630                check_tx_pwr_cal
                0x0000000040210774                tx_pwctrl_init
                0x0000000040210898                ram_get_noisefloor
                0x00000000402108b4                get_noisefloor_sat
                0x00000000402108e4                ram_set_noise_floor
                0x0000000040210940                ram_start_noisefloor
                0x000000004021098c                read_hw_noisefloor
                0x00000000402109b8                noise_check_loop
                0x0000000040210b14                noise_init
                0x0000000040210d14                target_power_backoff
                0x0000000040210d68                sdt_on_noise_start
                0x0000000040210de8                chip_v6_set_chan_rx_cmp
                0x0000000040210f74                chip_v6_set_chan_misc
                0x0000000040211008                phy_dig_spur_set
                0x0000000040211360                phy_dig_spur_prot
                0x0000000040211598                chip_v6_rxmax_ext_dig
                0x00000000402115e4                chip_v6_rxmax_ext
                0x0000000040211690                phy_bb_rx_cfg
                0x0000000040211aa8                uart_wait_idle
                0x0000000040211ae0                phy_pbus_soc_cfg
                0x0000000040211b98                phy_gpio_cfg
                0x0000000040211db0                tx_cont_en
                0x0000000040211e58                tx_cont_dis
                0x0000000040211eac                tx_cont_cfg
                0x0000000040211ecc                chip_v6_initialize_bb
                0x0000000040212038                periodic_cal
                0x0000000040212118                bbpll_cal
                0x00000000402121b0                periodic_cal_top
                0x0000000040212210                register_chipv6_phy_init_param
                0x00000000402124b8                change_bbpll160_sleep
                0x0000000040212668                change_bbpll160
                0x00000000402126a0                set_crystal_uart
                0x0000000040212734                ant_switch_init
                0x00000000402127e4                reduce_current_init
                0x00000000402128d0                rtc_mem_check
                0x000000004021290c                phy_afterwake_set_rfoption
                0x000000004021292c                deep_sleep_set_option
                0x0000000040212958                write_data_to_rtc
                0x0000000040212990                get_data_from_rtc
                0x0000000040212a10                register_chipv6_phy
                0x0000000040212eac                set_dpd_bypass
                0x0000000040212ed4                set_rf_gain_stage10
                0x0000000040212f04                get_vdd33_offset
                0x0000000040212f78                get_phy_target_power
                0x000000004021302c                set_most_pwr_reg
                0x0000000040213100                phy_set_most_tpw
                0x0000000040213120                phy_vdd33_set_tpw
                0x0000000040213138                get_adc_rand
                0x000000004021316c                phy_get_rand
                0x0000000040213184                phy_tx_pwctrl_cali
                0x00000000402131ac                phy_check_data_table
                0x00000000402131e8                phy_after_init_enrx
                0x000000004021324c                phy_set_rx11b_reg
                0x0000000040213280                phy_set_powerup_option
                0x0000000040213290                phy_get_txpwr_param
                0x00000000402132dc                phy_get_rxnf_param
                0x00000000402132e8                phy_get_freq_param
 .irom0.text    0x00000000402132fc     0x2178 /opt/esp-open-sdk/sdk/lib/libphy.a(phy_chip_v6_cal.o)
                                       0x23a4 (size before relaxing)
                0x00000000402132fc                txbbgain2dcoindex
                0x000000004021331c                dcoindex2txbbgain
                0x0000000040213340                init_cal_dcoffset
                0x0000000040213404                set_rfanagain_dc_reg
                0x00000000402134a0                set_txdc_pbus
                0x000000004021350c                get_rf_gain_qdb
                0x0000000040213534                correct_rf_ana_gain
                0x000000004021363c                get_sar_dout
                0x00000000402136c8                cal_rf_ana_gain
                0x00000000402137f4                meas_tone_pwr_db
                0x0000000040213864                tx_pwr_backoff
                0x00000000402139ec                get_fcc_1m2m_pwr_offset
                0x0000000040213a28                ram_set_txbb_atten
                0x0000000040213abc                txiq_get_mis_pwr
                0x0000000040213b64                txiq_cover
                0x0000000040213d80                ram_rfcal_txiq
                0x0000000040213ff0                rc_cal
                0x00000000402141b0                get_target_power_offset
                0x00000000402142b8                get_pwctrl_correct
                0x0000000040214310                tx_pwctrl_cal
                0x000000004021460c                tx_pwctrl_bg_init
                0x0000000040214684                tx_pwctrl_background
                0x000000004021473c                read_sar_dout
                0x00000000402147a0                ram_get_fm_sar_dout
                0x0000000040214844                ram_cal_tos_v60
                0x0000000040214a14                ram_get_bb_atten
                0x0000000040214a44                ram_rfcal_txcap
                0x0000000040214c08                ram_rfcal_pwrctrl
                0x0000000040214e30                ram_rxiq_get_mis
                0x0000000040215000                ram_rxiq_cover_mg_mp
                0x00000000402151a4                ram_rfcal_rxiq
                0x00000000402153b0                dpd_scale_set
                0x00000000402153f8                dpd_mem_write
 .irom0.text    0x0000000040215474      0xd9a /opt/esp-open-sdk/sdk/lib/libphy.a(phy_sleep.o)
                                        0xfc6 (size before relaxing)
                0x0000000040215474                pm_usec2rtc
                0x00000000402154a8                pm_rtc2usec
                0x00000000402154b8                pm_set_sleep_cycles
                0x00000000402154dc                pm_sleep_opt
                0x0000000040215620                pm_wakeup_opt
                0x0000000040215658                get_chip_version
                0x0000000040215698                pm_sleep_opt_bb_off
                0x00000000402156d8                pm_sleep_opt_bb_on
                0x0000000040215720                pm_set_pll_xtal_wait_time
                0x000000004021574c                pm_prepare_to_sleep
                0x0000000040215754                pm_sdio_nidle
                0x00000000402157c8                chg_lslp_mem_opt_8266
                0x00000000402157f8                pm_goto_sleep
                0x0000000040215944                pm_wait4wakeup
                0x0000000040215980                pm_open_rf
                0x00000000402159c4                pm_sleep_set_mac
                0x0000000040215a48                pm_set_wakeup_mac
                0x0000000040215ae0                pm_check_mac_idle
                0x0000000040215b38                pm_set_sleep_btco
                0x0000000040215bd8                pm_set_wakeup_btco
                0x0000000040215cf0                pm_set_sleep_mode
                0x0000000040215e0c                pm_unmask_bt
                0x0000000040215e74                pm_wakeup_init
                0x00000000402160b4                sleep_opt_8266
                0x00000000402160d4                sleep_opt_bb_on_8266
                0x000000004021610c                sleep_reset_analog_rtcreg_8266
 *fill*         0x000000004021620e        0x2 
 .irom0.text    0x0000000040216210      0x469 /opt/esp-open-sdk/sdk/lib/libpp.a(if_hwctrl.o)
                                        0x581 (size before relaxing)
                0x0000000040216230                ic_get_addr
                0x000000004021623c                ic_set_opmode
                0x0000000040216250                ic_enable_interface
                0x00000000402162a0                ic_interface_enabled
                0x00000000402162b4                ic_disable_interface
                0x00000000402162fc                ic_is_pure_sta
                0x0000000040216318                ic_get_ptk_alg
                0x0000000040216328                ic_get_gtk_alg
                0x0000000040216338                ic_set_ptk_alg
                0x0000000040216348                ic_set_gtk_alg
                0x0000000040216358                ic_interface_is_p2p
                0x00000000402163f0                ic_set_vif
                0x00000000402164b0                ic_set_sta
                0x0000000040216588                ic_bss_info_update
                0x00000000402165e4                ic_set_key
                0x0000000040216640                ic_remove_key
                0x0000000040216654                ic_get_rssi
 *fill*         0x0000000040216679        0x3 
 .irom0.text    0x000000004021667c      0x100 /opt/esp-open-sdk/sdk/lib/libpp.a(lmac.o)
                                        0x118 (size before relaxing)
                0x0000000040216680                lmacInitAc
                0x00000000402166b4                lmacInit
                0x0000000040216760                lmacSetRetryLimit
 .irom0.text    0x000000004021677c     0x19f9 /opt/esp-open-sdk/sdk/lib/libpp.a(pm.o)
                                       0x1f91 (size before relaxing)
                0x0000000040216784                pm_rtc_clock_cali_proc
                0x00000000402167bc                pm_get_ck170_period
                0x00000000402167e0                pm_set_sleep_time
                0x0000000040216b64                pm_rf_is_closed
                0x0000000040216b94                pm_set_sleep_type_from_upper
                0x0000000040216c84                pm_get_sleep_type
                0x0000000040216e40                uart_tx_flush
                0x0000000040216e44                pm_suspend
                0x0000000040217064                pm_shutdown
                0x000000004021712c                pm_reset_idle_sleep
                0x000000004021716c                pm_idle_sleep
                0x0000000040217178                pm_open
                0x0000000040217258                pm_onBcnRx
                0x00000000402175f0                StopLightSleepSetFunc
                0x00000000402175f8                LightSleepWakedCbSetFunc
                0x0000000040217bb4                pm_enable_gpio_wakeup
                0x0000000040217bec                pm_attach
                0x0000000040217ce0                pm_send_nullfunc
                0x0000000040217e84                pm_is_waked
                0x0000000040217e9c                pm_is_open
                0x0000000040217eb4                pm_scan_lock
                0x0000000040217edc                pm_try_scan_unlock
                0x0000000040217ef4                pm_force_scan_unlock
                0x0000000040217f98                pm_scan_unlocked
                0x0000000040217fac                pm_allow_tx
                0x0000000040217fc8                pm_assoc_parse
                0x0000000040217fe0                pm_set_addr
                0x0000000040218000                pm_sleep_for
                0x0000000040218030                pm_post
                0x0000000040218134                pm_get_idle_wait_time
 *fill*         0x0000000040218175        0x3 
 .irom0.text    0x0000000040218178      0xb48 /opt/esp-open-sdk/sdk/lib/libpp.a(pm_for_bcn_only_mode.o)
                                        0xf0c (size before relaxing)
                0x000000004021818c                wifi_fpm_set_sleep_type
                0x000000004021818c                fpm_set_type_from_upper
                0x0000000040218248                wifi_fpm_get_sleep_type
                0x0000000040218248                fpm_get_slp_type
                0x0000000040218250                fpm_rf_is_closed
                0x0000000040218264                fpm_is_open
                0x0000000040218270                fpm_allow_tx
                0x0000000040218294                wifi_fpm_close
                0x0000000040218294                fpm_close
                0x0000000040218310                wifi_fpm_open
                0x0000000040218310                fpm_open
                0x0000000040218378                fpm_attach
                0x000000004021855c                wifi_fpm_set_wakeup_cb
                0x000000004021855c                fpm_set_wakeup_cb
                0x00000000402186a0                wifi_fpm_do_wakeup
                0x00000000402186a0                fpm_do_wakeup
                0x0000000040218bd8                fpm_do_sleep
                0x0000000040218bd8                wifi_fpm_do_sleep
                0x0000000040218c78                fpm_auto_sleep_set_in_null_mode
                0x0000000040218c78                wifi_fpm_auto_sleep_set_in_null_mode
                0x0000000040218cb8                get_fpm_auto_sleep_flag
 .irom0.text    0x0000000040218cc0     0x15ba /opt/esp-open-sdk/sdk/lib/libpp.a(pp.o)
                                       0x19a2 (size before relaxing)
                0x0000000040218ccc                PPWdtReset
                0x0000000040218d00                pp_soft_wdt_init
                0x0000000040218d20                system_soft_wdt_feed
                0x0000000040218d20                pp_soft_wdt_feed
                0x0000000040218d3c                pp_soft_wdt_stop
                0x0000000040218d3c                system_soft_wdt_stop
                0x0000000040218d68                pp_soft_wdt_restart
                0x0000000040218d68                system_soft_wdt_restart
                0x0000000040218da0                RxNodeNum
                0x0000000040218db8                TxNodeNum
                0x0000000040218ddc                pp_disable_noise_timer
                0x0000000040218dfc                pp_enable_noise_timer
                0x0000000040218f0c                pp_noise_test
                0x0000000040218f1c                reset_noise_timer
                0x0000000040218f54                pp_disable_idle_timer
                0x0000000040218f78                pp_enable_idle_timer
                0x0000000040218fa0                pp_try_enable_idle_timer
                0x0000000040218fdc                ppPeocessRxPktHdr
                0x0000000040219310                HdlAllBuffedEb
                0x0000000040219398                ppTxPkt
                0x0000000040219510                ppProcessWaitQ
                0x0000000040219520                ppRegisterTxCallback
                0x0000000040219548                ppUnregisterTxCallback
                0x000000004021957c                ppRecycleRxPkt
                0x00000000402195dc                ppCheckTxIdle
                0x0000000040219858                pp_tx_idle_timeout
                0x0000000040219a1c                DefFreqCalTimerCB
                0x0000000040219d98                ppGetTxQFirstAvail_Locked
                0x0000000040219e78                pp_attach
 *fill*         0x000000004021a27a        0x2 
 .irom0.text    0x000000004021a27c      0x296 /opt/esp-open-sdk/sdk/lib/libpp.a(rate_control.o)
                                        0x2a2 (size before relaxing)
                0x000000004021a4c8                RC_SetBasicRate
 *fill*         0x000000004021a512        0x2 
 .irom0.text    0x000000004021a514      0x5e9 /opt/esp-open-sdk/sdk/lib/libpp.a(trc.o)
                                        0x64d (size before relaxing)
                0x000000004021a514                phytype2mode
                0x000000004021a530                rc_set_rate_limit_id
                0x000000004021a64c                rcUpdatePhyMode
                0x000000004021a818                rcAttach
                0x000000004021a864                rcGetTrc
                0x000000004021a86c                trc_onDisconnect
                0x000000004021a870                trc_onScanStart
                0x000000004021a884                trc_onScanDone
                0x000000004021a8a0                rc_enable_trc
                0x000000004021a978                rc_get_mask
                0x000000004021a98c                rc_disable_trc
                0x000000004021a9e0                rc_disable_trc_by_interface
                0x000000004021a9fc                rc_get_sta_trc
                0x000000004021aa40                rc_get_trc
                0x000000004021aab0                rc_get_trc_by_index
                0x000000004021aad0                rc_only_sta_trc
 *fill*         0x000000004021aafd        0x3 
 .irom0.text    0x000000004021ab00      0xaf7 /opt/esp-open-sdk/sdk/lib/libpp.a(wdev.o)
                                        0xc53 (size before relaxing)
                0x000000004021ab0c                wDev_Option_Init
                0x000000004021ac00                wDev_Enable_Beacon_Tsf
                0x000000004021ac1c                wDev_Disable_Beacon_Tsf
                0x000000004021ac38                wDev_Set_Beacon_Int
                0x000000004021ac40                wDev_Reset_TBTT
                0x000000004021ac70                wDev_Get_Next_TBTT
                0x000000004021aeec                wDev_Initialize
                0x000000004021af5c                wDevForceAck6M
                0x000000004021af78                wDev_SetMacAddress
                0x000000004021b014                wDev_SetRxPolicy
                0x000000004021b068                wDev_SetBssid
                0x000000004021b140                wDev_ClearBssid
                0x000000004021b178                wDev_Insert_KeyEntry
                0x000000004021b26c                wDev_remove_KeyEntry
                0x000000004021b2a8                wDev_remove_KeyEntry_all_cnx
                0x000000004021b2f8                wDev_Crypto_Conf
                0x000000004021b394                wDev_Crypto_Disable
                0x000000004021b3cc                wDevEnableRx
                0x000000004021b3f4                wdev_go_sniffer
                0x000000004021b4d0                wdev_set_sniffer_addr
                0x000000004021b528                wdev_exit_sniffer
 *fill*         0x000000004021b5f7        0x1 
 .irom0.text    0x000000004021b5f8      0x3ed /opt/esp-open-sdk/sdk/lib/libpp.a(esf_buf.o)
                                        0x4c1 (size before relaxing)
                0x000000004021b600                esf_buf_alloc
                0x000000004021b7e8                esf_buf_recycle
                0x000000004021b928                esf_buf_setup
 *fill*         0x000000004021b9e5        0x3 
 .irom0.text    0x000000004021b9e8      0x475 /opt/esp-open-sdk/sdk/lib/libnet80211.a(ieee80211.o)
                                        0x545 (size before relaxing)
                0x000000004021ba6c                ieee80211_rate_ref_init
                0x000000004021ba80                ieee80211_freedom_inside_cb
                0x000000004021bab0                ieee80211_freedom_init
                0x000000004021bad4                ieee80211_user_ie_init
                0x000000004021baf0                ieee80211_ifattach
                0x000000004021bb54                ieee80211_mhz2ieee
                0x000000004021bbb0                ieee80211_chan2ieee
                0x000000004021bbcc                ieee80211_ieee2mhz
                0x000000004021bc0c                ieee80211_find_channel
                0x000000004021bc38                ieee80211_find_channel_byieee
                0x000000004021bc88                wifi_mode_set
 *fill*         0x000000004021be5d        0x3 
 .irom0.text    0x000000004021be60       0xcf /opt/esp-open-sdk/sdk/lib/libnet80211.a(ieee80211_crypto.o)
                                         0xd7 (size before relaxing)
                0x000000004021be60                ieee80211_crypto_attach
                0x000000004021be64                ieee80211_crypto_available
                0x000000004021be68                ieee80211_crypto_setkey
                0x000000004021be6c                ieee80211_crypto_encap
                0x000000004021bec4                ieee80211_crypto_decap
 *fill*         0x000000004021bf2f        0x1 
 .irom0.text    0x000000004021bf30       0x4c /opt/esp-open-sdk/sdk/lib/libnet80211.a(ieee80211_ets.o)
                                         0x50 (size before relaxing)
                0x000000004021bf34                ieee80211_getmgtframe
 .irom0.text    0x000000004021bf7c     0x1a08 /opt/esp-open-sdk/sdk/lib/libnet80211.a(ieee80211_hostap.o)
                                       0x1f77 (size before relaxing)
                0x000000004021c5a0                ieee80211_hostap_attach
                0x000000004021c69c                hostap_handle_timer
                0x000000004021c734                hostap_input
                0x000000004021d680                wifi_softap_start
                0x000000004021d7ec                wifi_softap_stop
 *fill*         0x000000004021d984        0x0 
 .irom0.text    0x000000004021d984      0xa82 /opt/esp-open-sdk/sdk/lib/libnet80211.a(ieee80211_ht.o)
                                        0xb4e (size before relaxing)
                0x000000004021d994                ieee80211_ht_attach
                0x000000004021d9e8                ieee80211_ht_node_init
                0x000000004021da28                ieee80211_ht_node_cleanup
                0x000000004021da60                ieee80211_parse_htcap
                0x000000004021db44                ieee80211_ht_updateparams
                0x000000004021dc58                ieee80211_setup_htrates
                0x000000004021dd24                ieee80211_setup_basic_htrates
                0x000000004021e070                ieee80211_add_htcap
                0x000000004021e08c                ieee80211_add_htcap_vendor
                0x000000004021e1b0                ieee80211_add_htinfo
                0x000000004021e1cc                ieee80211_add_htinfo_vendor
 *fill*         0x000000004021e406        0x2 
 .irom0.text    0x000000004021e408      0xa8c /opt/esp-open-sdk/sdk/lib/libnet80211.a(ieee80211_input.o)
                                        0xb1c (size before relaxing)
                0x000000004021e408                ieee80211_deliver_data
                0x000000004021e45c                ieee80211_decap
                0x000000004021e560                ieee80211_setup_rates
                0x000000004021e5d0                ieee80211_alloc_challenge
                0x000000004021e60c                ieee80211_parse_beacon
                0x000000004021ebe0                ieee80211_parse_wpa
                0x000000004021ecf4                ieee80211_parse_rsn
                0x000000004021edf4                ieee80211_parse_action
                0x000000004021ee90                ieee80211_setup_rateset
 .irom0.text    0x000000004021ee94      0x2a6 /opt/esp-open-sdk/sdk/lib/libnet80211.a(ieee80211_mesh_quick.o)
                                        0x302 (size before relaxing)
                0x000000004021eea0                ieee80211_mesh_quick_init
                0x000000004021ef10                ieee80211_mesh_quick_deinit
                0x000000004021ef40                ieee80211_mesh_quick_set
                0x000000004021f03c                ieee80211_mesh_quick_get
                0x000000004021f108                ieee80211_mesh_quick_ie_add
 *fill*         0x000000004021f13a        0x2 
 .irom0.text    0x000000004021f13c     0x1c56 /opt/esp-open-sdk/sdk/lib/libnet80211.a(ieee80211_output.o)
                                       0x1ff2 (size before relaxing)
                0x000000004021f140                ieee80211_output_pbuf
                0x000000004021f3b0                ieee80211_send_setup
                0x000000004021f4e4                ieee80211_mgmt_output
                0x000000004021f5c8                ieee80211_tx_mgt_cb
                0x000000004021f5cc                ieee80211_send_nulldata
                0x000000004021fa3c                ieee80211_add_rates
                0x000000004021fa8c                ieee80211_add_xrates
                0x000000004021fb5c                ieee80211_send_probereq
                0x000000004021fd70                ieee80211_getcapinfo
                0x000000004021fdcc                ieee80211_send_mgmt
                0x0000000040220374                ieee80211_alloc_proberesp
                0x000000004022054c                ieee80211_send_proberesp
                0x0000000040220694                ieee80211_alloc_deauth
                0x00000000402206d4                ieee80211_send_deauth
                0x0000000040220810                ieee80211_freedom_output
                0x0000000040220bfc                ieee80211_beacon_alloc
 *fill*         0x0000000040220d92        0x2 
 .irom0.text    0x0000000040220d94       0xe0 /opt/esp-open-sdk/sdk/lib/libnet80211.a(ieee80211_phy.o)
                                        0x108 (size before relaxing)
                0x0000000040220d94                ieee80211_phy_init
                0x0000000040220dc8                ieee80211_phy_type_get
                0x0000000040220de4                ieee80211_setup_ratetable
 .irom0.text    0x0000000040220e74      0x1b6 /opt/esp-open-sdk/sdk/lib/libnet80211.a(ieee80211_power.o)
                                        0x1f2 (size before relaxing)
                0x0000000040220e74                ieee80211_psq_init
                0x0000000040220e94                ieee80211_psq_cleanup
                0x0000000040220e9c                ieee80211_set_tim
                0x0000000040220edc                ieee80211_pwrsave
                0x0000000040220f44                pwrsave_flushq
                0x0000000040220ff4                ieee80211_node_pwrsave
 *fill*         0x000000004022102a        0x2 
 .irom0.text    0x000000004022102c      0x101 /opt/esp-open-sdk/sdk/lib/libnet80211.a(ieee80211_proto.o)
                                        0x129 (size before relaxing)
                0x0000000040221030                ieee80211_proto_attach
                0x0000000040221058                ieee80211_set_shortslottime
                0x0000000040221074                ieee80211_iserp_rateset
                0x00000000402210a8                ieee80211_wme_initparams
                0x00000000402210ac                ieee80211_wme_updateparams
                0x00000000402210b4                ieee80211_mlme_connect_bss
 *fill*         0x000000004022112d        0x3 
 .irom0.text    0x0000000040221130       0xaa /opt/esp-open-sdk/sdk/lib/libnet80211.a(ieee80211_rfid.o)
                                         0xd6 (size before relaxing)
                0x0000000040221130                ieee80211_rfid_locp_recv_open
                0x0000000040221168                ieee80211_rfid_locp_recv_close
                0x0000000040221180                ieee80211_rfid_locp_recv_reset
                0x00000000402211a0                ieee80211_rfid_locp_recv
                0x00000000402211bc                register_ieee80211_rfid_locp_recv_cb
                0x00000000402211d0                unregister_ieee80211_rfid_locp_recv_cb
 *fill*         0x00000000402211da        0x2 
 .irom0.text    0x00000000402211dc      0xf51 /opt/esp-open-sdk/sdk/lib/libnet80211.a(ieee80211_scan.o)
                                       0x12a1 (size before relaxing)
                0x00000000402211e8                ieee80211_scan_attach
                0x000000004022127c                scan_start
                0x000000004022143c                scan_pm_channel_op_cb
                0x00000000402215dc                scan_cancel
                0x0000000040221738                scan_add_bssid
                0x000000004022175c                scan_remove_bssid
                0x0000000040221768                scan_hidden_ssid
                0x0000000040221770                scan_add_probe_ssid
                0x00000000402217c4                scan_remove_probe_ssid
                0x0000000040221900                scan_clear_channles
                0x0000000040221974                scan_set_desChan
                0x0000000040221980                scan_get_type
                0x0000000040221988                cannel_scan_connect_state
                0x00000000402219a0                scan_connect_state
                0x00000000402219e8                scan_check_hidden
                0x0000000040221a14                scan_profile_check
                0x0000000040221dbc                scan_parse_beacon
 *fill*         0x000000004022212d        0x3 
 .irom0.text    0x0000000040222130     0x103e /opt/esp-open-sdk/sdk/lib/libnet80211.a(ieee80211_sta.o)
                                       0x12c1 (size before relaxing)
                0x000000004022218c                sta_status_set
                0x00000000402221f8                ieee80211_sta_new_state
                0x0000000040222588                sta_input
                0x0000000040222ad4                ieee80211_parse_wmeparams
                0x00000000402230c4                wifi_station_start
                0x0000000040223134                wifi_station_stop
 *fill*         0x000000004022316e        0x2 
 .irom0.text    0x0000000040223170      0x29e /opt/esp-open-sdk/sdk/lib/libnet80211.a(wl_chm.o)
                                        0x31e (size before relaxing)
                0x000000004022317c                chm_init
                0x00000000402231e0                chm_acquire_lock
                0x0000000040223224                chm_release_lock
                0x0000000040223238                chm_start_op
                0x00000000402232dc                chm_end_op
                0x0000000040223324                chm_cancel_op
                0x0000000040223358                chm_return_home_channel
                0x0000000040223388                chm_set_current_channel
                0x00000000402233b8                chm_freq2index
                0x00000000402233e0                chm_check_same_channel
 *fill*         0x000000004022340e        0x2 
 .irom0.text    0x0000000040223410     0x17d9 /opt/esp-open-sdk/sdk/lib/libnet80211.a(wl_cnx.o)
                                       0x1d4d (size before relaxing)
                0x000000004022341c                cnx_attach
                0x000000004022345c                cnx_sta_connect_led_timer_cb
                0x00000000402234b0                cnx_sta_connect_cmd
                0x000000004022356c                cnx_sta_scan_cmd
                0x00000000402237d4                cnx_connect_timeout
                0x0000000040223850                cnx_auth_timeout
                0x0000000040223874                cnx_assoc_timeout
                0x0000000040223898                cnx_handshake_timeout
                0x00000000402238d8                cnx_start_handoff_cb
                0x0000000040223d48                cnx_bss_alloc
                0x0000000040223de8                cnx_rc_search
                0x0000000040223e68                cnx_add_rc
                0x0000000040223ed4                cnx_remove_all_rc
                0x0000000040223f20                cnx_remove_rc
                0x0000000040223ff0                cnx_rc_update_rssi
                0x0000000040224078                cnx_rc_update_state_metric
                0x00000000402240e4                cnx_rc_update_age
                0x0000000040224108                cnx_update_bss
                0x000000004022413c                cnx_update_bss_more
                0x0000000040224318                cnx_sta_leave
                0x00000000402245ac                cnx_sta_associated
                0x00000000402246b4                cnx_node_alloc
                0x0000000040224728                cnx_node_remove
                0x00000000402247b4                cnx_node_search
                0x0000000040224830                cnx_node_leave
                0x0000000040224930                wifi_softap_staconnected_event_policy
                0x0000000040224958                wifi_softap_toomany_deny
                0x0000000040224994                cnx_node_join
 *fill*         0x0000000040224be9        0x3 
 .irom0.text    0x0000000040224bec      0x16f /opt/esp-open-sdk/sdk/lib/libnet80211.a(ieee80211_action.o)
                                        0x193 (size before relaxing)
                0x0000000040224bfc                ieee80211_send_action_register
                0x0000000040224c30                ieee80211_send_action_unregister
                0x0000000040224c44                ieee80211_send_action
                0x0000000040224cb0                ieee80211_recv_action_register
                0x0000000040224ce4                ieee80211_recv_action_unregister
                0x0000000040224cf8                ieee80211_recv_action
 *fill*         0x0000000040224d5b        0x1 
 .irom0.text    0x0000000040224d5c      0x479 /opt/esp-open-sdk/sdk/lib/libnet80211.a(ieee80211_action_vendor.o)
                                        0x505 (size before relaxing)
                0x0000000040224d60                get_iav_key
                0x0000000040224d80                register_ieee80211_action_vendor_get_key_cb
                0x0000000040224d94                unregister_ieee80211_action_vendor_get_key_cb
                0x0000000040224da8                ieee80211_add_action_vendor_spec_esp
                0x0000000040224df0                ieee80211_alloc_action_vendor_spec
                0x0000000040224edc                ieee80211_send_action_vendor_spec
                0x0000000040225070                ieee80211_recv_action_vendor_spec
                0x0000000040225178                ieee80211_action_vendor_spec_attach
                0x00000000402251b8                register_ieee80211_action_vendor_spec_cb
                0x00000000402251cc                unregister_ieee80211_action_vendor_spec_cb
 *fill*         0x00000000402251d5        0x3 
 .irom0.text    0x00000000402251d8      0x15d /opt/esp-open-sdk/sdk/lib/libnet80211.a(ieee80211_crypto_ccmp.o)
                                        0x165 (size before relaxing)
 *fill*         0x0000000040225335        0x3 
 .irom0.text    0x0000000040225338      0x23d /opt/esp-open-sdk/sdk/lib/libnet80211.a(ieee80211_ie_vendor.o)
                                        0x25d (size before relaxing)
                0x000000004022533c                ieee80211_add_ie_vendor_esp_head
                0x0000000040225374                ieee80211_add_ie_vendor_esp_mesh_assoc
                0x00000000402253f8                ieee80211_add_ie_vendor_esp_mesh_group
                0x0000000040225428                ieee80211_add_ie_vendor_esp_simple_pair
                0x0000000040225478                ieee80211_add_ie_vendor_esp_freq_annon
                0x00000000402254b0                ieee80211_add_ie_vendor_esp_now
                0x00000000402254e8                ieee80211_add_ie_vendor_esp_ssid
                0x0000000040225528                ieee80211_add_ie_vendor_esp_manufacturer
 *fill*         0x0000000040225575        0x3 
 .irom0.text    0x0000000040225578     0x146a /opt/esp-open-sdk/sdk/lib/liblwip.a(dhcp.o)
                                       0x1666 (size before relaxing)
                0x00000000402257f4                dhcp_coarse_tmr
                0x0000000040225840                dhcp_fine_tmr
                0x0000000040225a98                dhcp_set_struct
                0x0000000040225ac0                dhcp_cleanup
                0x0000000040225aec                dhcp_start
                0x0000000040225ba4                dhcp_inform
                0x0000000040225c50                dhcp_network_changed
                0x0000000040225c98                dhcp_arp_reply
                0x0000000040225f94                dhcp_renew
                0x00000000402262c0                dhcp_release
                0x0000000040226380                dhcp_stop
 *fill*         0x00000000402269e2        0x2 
 .irom0.text    0x00000000402269e4      0xdd6 /opt/esp-open-sdk/sdk/lib/liblwip.a(dhcpserver.o)
                                       0x1006 (size before relaxing)
                0x00000000402269e4                node_insert_to_list
                0x0000000040226a1c                node_remove_from_list
                0x0000000040227124                dhcps_start
                0x000000004022718c                dhcps_stop
                0x00000000402271f8                wifi_softap_set_dhcps_lease
                0x00000000402272e4                wifi_softap_get_dhcps_lease
                0x0000000040227384                dhcps_coarse_tmr
                0x00000000402273f8                wifi_softap_set_dhcps_offer_option
                0x000000004022743c                wifi_softap_set_dhcps_lease_time
                0x000000004022746c                wifi_softap_reset_dhcps_lease_time
                0x0000000040227498                wifi_softap_get_dhcps_lease_time
                0x00000000402274a0                wifi_softap_dhcps_client_leave
                0x0000000040227548                wifi_softap_dhcps_client_update
 *fill*         0x00000000402277ba        0x2 
 .irom0.text    0x00000000402277bc      0x5cf /opt/esp-open-sdk/sdk/lib/liblwip.a(dns.o)
                                        0x68b (size before relaxing)
                0x00000000402277c8                dns_init
                0x0000000040227808                dns_setserver
                0x0000000040227828                dns_getserver
                0x000000004022783c                dns_tmr
                0x0000000040227d34                dns_gethostbyname
 *fill*         0x0000000040227d8b        0x1 
 .irom0.text    0x0000000040227d8c      0xfe4 /opt/esp-open-sdk/sdk/lib/liblwip.a(espconn_tcp.o)
                                       0x1308 (size before relaxing)
                0x0000000040227e74                espconn_kill_oldest_pcb
                0x0000000040227ef8                espconn_kill_pcb
                0x0000000040227f74                espconn_find_current_pcb
                0x0000000040228010                espconn_tcp_memp_free
                0x000000004022827c                espconn_tcp_sent
                0x0000000040228334                espconn_tcp_disconnect
                0x00000000402283dc                espconn_recv_hold
                0x0000000040228420                espconn_recv_unhold
                0x000000004022852c                espconn_tcp_write
                0x000000004022875c                espconn_tcp_client
                0x0000000040228c0c                espconn_tcp_server
                0x0000000040228cc8                espconn_tcp_delete
                0x0000000040228d54                espconn_init
 .irom0.text    0x0000000040228d70      0x8cf /opt/esp-open-sdk/sdk/lib/liblwip.a(etharp.o)
                                        0x9b7 (size before relaxing)
                0x0000000040228da4                etharp_tmr
                0x0000000040228fd0                etharp_cleanup_netif
                0x000000004022900c                etharp_find_addr
                0x0000000040229260                etharp_output
                0x0000000040229374                etharp_query
                0x00000000402295a4                etharp_request
                0x00000000402295c8                ethernet_input
 *fill*         0x000000004022963f        0x1 
 .irom0.text    0x0000000040229640       0x40 /opt/esp-open-sdk/sdk/lib/liblwip.a(init.o)
                                         0x60 (size before relaxing)
                0x0000000040229644                lwip_init
 .irom0.text    0x0000000040229680      0x37a /opt/esp-open-sdk/sdk/lib/liblwip.a(ip_addr.o)
                                        0x3a2 (size before relaxing)
                0x0000000040229680                ip4_addr_isbroadcast
                0x00000000402296ac                ip4_addr_netmask_valid
                0x00000000402296ec                ipaddr_addr
                0x0000000040229708                ipaddr_aton
                0x0000000040229924                ipaddr_ntoa
                0x0000000040229938                ipaddr_ntoa_r
 *fill*         0x00000000402299fa        0x2 
 .irom0.text    0x00000000402299fc      0x581 /opt/esp-open-sdk/sdk/lib/liblwip.a(ip.o)
                                        0x62d (size before relaxing)
                0x00000000402299fc                ip_route
                0x0000000040229a78                ip_router
                0x0000000040229af4                ip_input
                0x0000000040229d4c                ip_output_if
                0x0000000040229d68                ip_output_if_opt
                0x0000000040229f44                ip_output
 *fill*         0x0000000040229f7d        0x3 
 .irom0.text    0x0000000040229f80      0x27d /opt/esp-open-sdk/sdk/lib/liblwip.a(netif.o)
                                        0x2bd (size before relaxing)
                0x0000000040229f80                netif_init
                0x0000000040229f88                netif_add
                0x0000000040229ff0                netif_set_addr
                0x000000004022a018                netif_remove
                0x000000004022a074                netif_find
                0x000000004022a0b0                netif_set_ipaddr
                0x000000004022a118                netif_set_gw
                0x000000004022a128                netif_set_netmask
                0x000000004022a138                netif_set_default
                0x000000004022a140                netif_set_up
                0x000000004022a17c                netif_set_down
                0x000000004022a1a0                netif_set_link_up
                0x000000004022a1ec                netif_set_link_down
 *fill*         0x000000004022a1fd        0x3 
 .irom0.text    0x000000004022a200      0x68e /opt/esp-open-sdk/sdk/lib/liblwip.a(pbuf.o)
                                        0x6f6 (size before relaxing)
                0x000000004022a200                pbuf_free_ooseq_new
                0x000000004022a258                pbuf_alloc
                0x000000004022a3b8                pbuf_realloc
                0x000000004022a400                pbuf_header
                0x000000004022a46c                pbuf_free
                0x000000004022a4f8                pbuf_clen
                0x000000004022a510                pbuf_ref
                0x000000004022a51c                pbuf_cat
                0x000000004022a548                pbuf_chain
                0x000000004022a564                pbuf_dechain
                0x000000004022a5a0                pbuf_copy
                0x000000004022a644                pbuf_copy_partial
                0x000000004022a6c4                pbuf_take
                0x000000004022a724                pbuf_coalesce
                0x000000004022a758                pbuf_get_at
                0x000000004022a780                pbuf_memcmp
                0x000000004022a7ec                pbuf_memfind
                0x000000004022a844                pbuf_strstr
 *fill*         0x000000004022a88e        0x2 
 .irom0.text    0x000000004022a890      0x1f1 /opt/esp-open-sdk/sdk/lib/liblwip.a(raw.o)
                                        0x249 (size before relaxing)
                0x000000004022a898                raw_input
                0x000000004022a920                raw_bind
                0x000000004022a930                raw_connect
                0x000000004022a940                raw_recv
                0x000000004022a948                raw_sendto
                0x000000004022a9e4                raw_send
                0x000000004022a9fc                raw_remove
                0x000000004022aa38                raw_new
 *fill*         0x000000004022aa81        0x3 
 .irom0.text    0x000000004022aa84     0x157c /opt/esp-open-sdk/sdk/lib/liblwip.a(tcp_in.o)
                                       0x17c0 (size before relaxing)
                0x000000004022aa8c                tcp_input
 .irom0.text    0x000000004022c000      0xaeb /opt/esp-open-sdk/sdk/lib/liblwip.a(tcp.o)
                                        0xc23 (size before relaxing)
                0x000000004022c004                tcp_tmr
                0x000000004022c028                tcp_close
                0x000000004022c04c                tcp_shutdown
                0x000000004022c0ac                tcp_abandon
                0x000000004022c154                tcp_abort
                0x000000004022c16c                tcp_bind
                0x000000004022c1e8                tcp_listen_with_backlog
                0x000000004022c2a8                tcp_update_rcv_ann_wnd
                0x000000004022c2ec                tcp_recved
                0x000000004022c348                tcp_connect
                0x000000004022c454                tcp_slowtmr
                0x000000004022c6fc                tcp_fasttmr
                0x000000004022c778                tcp_segs_free
                0x000000004022c794                tcp_seg_free
                0x000000004022c7c0                tcp_setprio
                0x000000004022c7c8                tcp_seg_copy
                0x000000004022c80c                tcp_recv_null
                0x000000004022c8c4                tcp_alloc
                0x000000004022c9ac                tcp_new
                0x000000004022c9c0                tcp_arg
                0x000000004022c9c4                tcp_recv
                0x000000004022c9cc                tcp_sent
                0x000000004022c9d4                tcp_err
                0x000000004022c9dc                tcp_accept
                0x000000004022c9e0                tcp_poll
                0x000000004022c9e8                tcp_pcb_purge
                0x000000004022ca3c                tcp_pcb_remove
                0x000000004022caa4                tcp_next_iss
                0x000000004022cab8                tcp_eff_send_mss
 *fill*         0x000000004022caeb        0x1 
 .irom0.text    0x000000004022caec      0xee8 /opt/esp-open-sdk/sdk/lib/liblwip.a(tcp_out.o)
                                        0xfec (size before relaxing)
                0x000000004022cbe4                tcp_send_fin
                0x000000004022cdcc                tcp_write
                0x000000004022d108                tcp_enqueue_flags
                0x000000004022d1ec                tcp_send_empty_ack
                0x000000004022d280                tcp_output
                0x000000004022d590                tcp_rst
                0x000000004022d6d0                tcp_rexmit_rto
                0x000000004022d70c                tcp_rexmit
                0x000000004022d7b8                tcp_rexmit_fast
                0x000000004022d810                tcp_keepalive
                0x000000004022d890                tcp_zero_window_probe
 .irom0.text    0x000000004022d9d4      0x2c7 /opt/esp-open-sdk/sdk/lib/liblwip.a(timers.o)
                                        0x357 (size before relaxing)
                0x000000004022da14                tcp_timer_needed
                0x000000004022da9c                sys_timeouts_init
                0x000000004022db04                sys_timeout
                0x000000004022db80                sys_untimeout
                0x000000004022dbd0                sys_check_timeouts
                0x000000004022dc8c                sys_restart_timeouts
 *fill*         0x000000004022dc9b        0x1 
 .irom0.text    0x000000004022dc9c      0x573 /opt/esp-open-sdk/sdk/lib/liblwip.a(udp.o)
                                        0x62b (size before relaxing)
                0x000000004022dca0                udp_input
                0x000000004022def8                udp_send
                0x000000004022df0c                udp_sendto
                0x000000004022df58                udp_sendto_if
                0x000000004022e0a0                udp_bind
                0x000000004022e11c                udp_connect
                0x000000004022e178                udp_disconnect
                0x000000004022e190                udp_recv
                0x000000004022e19c                udp_remove
                0x000000004022e1d8                udp_new
 *fill*         0x000000004022e20f        0x1 
 .irom0.text    0x000000004022e210      0xa6e /opt/esp-open-sdk/sdk/lib/liblwip.a(espconn.o)
                                        0xb72 (size before relaxing)
                0x000000004022e210                espconn_copy_partial
                0x000000004022e2a0                espconn_list_creat
                0x000000004022e2c0                espconn_list_delete
                0x000000004022e2e8                espconn_pbuf_create
                0x000000004022e304                espconn_pbuf_delete
                0x000000004022e328                espconn_find_connection
                0x000000004022e3e4                espconn_connect
                0x000000004022e4c8                espconn_create
                0x000000004022e510                espconn_sent
                0x000000004022e510                espconn_send
                0x000000004022e5d4                espconn_sendto
                0x000000004022e61c                espconn_tcp_get_wnd
                0x000000004022e640                espconn_tcp_set_wnd
                0x000000004022e65c                espconn_tcp_get_mss
                0x000000004022e664                espconn_tcp_get_max_con
                0x000000004022e674                espconn_tcp_set_max_con
                0x000000004022e68c                espconn_tcp_get_max_retran
                0x000000004022e69c                espconn_tcp_set_max_retran
                0x000000004022e6b4                espconn_tcp_get_max_syn
                0x000000004022e6c4                espconn_tcp_set_max_syn
                0x000000004022e6dc                espconn_tcp_get_max_con_allow
                0x000000004022e704                espconn_tcp_set_max_con_allow
                0x000000004022e734                espconn_tcp_set_buf_count
                0x000000004022e778                espconn_regist_sentcb
                0x000000004022e784                espconn_regist_write_finish
                0x000000004022e79c                espconn_regist_connectcb
                0x000000004022e7ac                espconn_regist_recvcb
                0x000000004022e7b8                espconn_regist_reconcb
                0x000000004022e7c8                espconn_regist_disconcb
                0x000000004022e7dc                espconn_get_connection_info
                0x000000004022e8a4                espconn_accept
                0x000000004022e8e8                espconn_regist_time
                0x000000004022e928                espconn_disconnect
                0x000000004022e96c                espconn_abort
                0x000000004022e9ac                espconn_get_packet_info
                0x000000004022ea3c                espconn_set_opt
                0x000000004022ea94                espconn_clear_opt
                0x000000004022eaf4                espconn_set_keepalive
                0x000000004022eb60                espconn_get_keepalive
                0x000000004022ebd0                espconn_delete
                0x000000004022ec18                espconn_port
                0x000000004022ec50                espconn_gethostbyname
                0x000000004022ec6c                espconn_dns_setserver
 *fill*         0x000000004022ec7e        0x2 
 .irom0.text    0x000000004022ec80      0x4e7 /opt/esp-open-sdk/sdk/lib/liblwip.a(espconn_udp.o)
                                        0x63f (size before relaxing)
                0x000000004022ecd0                espconn_udp_sent
                0x000000004022ee38                espconn_udp_sendto
                0x000000004022f08c                espconn_udp_disconnect
                0x000000004022f0c8                espconn_udp_server
                0x000000004022f130                espconn_igmp_leave
                0x000000004022f14c                espconn_igmp_join
 *fill*         0x000000004022f167        0x1 
 .irom0.text    0x000000004022f168      0x26e /opt/esp-open-sdk/sdk/lib/liblwip.a(icmp.o)
                                        0x312 (size before relaxing)
                0x000000004022f16c                icmp_input
                0x000000004022f318                icmp_dest_unreach
 *fill*         0x000000004022f3d6        0x2 
 .irom0.text    0x000000004022f3d8      0x5f6 /opt/esp-open-sdk/sdk/lib/liblwip.a(igmp.o)
                                        0x68a (size before relaxing)
                0x000000004022f3e4                igmp_init
                0x000000004022f3f4                igmp_start
                0x000000004022f438                igmp_stop
                0x000000004022f49c                igmp_report_groups
                0x000000004022f4cc                igmp_lookfor_group
                0x000000004022f594                igmp_input
                0x000000004022f6dc                igmp_joingroup
                0x000000004022f784                igmp_leavegroup
                0x000000004022f828                igmp_tmr
 *fill*         0x000000004022f9ce        0x2 
 .irom0.text    0x000000004022f9d0      0x2aa /opt/esp-open-sdk/sdk/lib/libwpa.a(ap_config.o)
                                        0x2ee (size before relaxing)
                0x000000004022f9d4                hostapd_config_defaults_bss
                0x000000004022fa20                hostapd_config_defaults
                0x000000004022faa4                hostapd_mac_comp
                0x000000004022fab8                hostapd_mac_comp_empty
                0x000000004022fb24                hostapd_setup_wpa_psk
                0x000000004022fb54                hostapd_wep_key_cmp
                0x000000004022fba4                hostapd_maclist_found
                0x000000004022fc0c                hostapd_rate_found
                0x000000004022fc28                hostapd_get_psk
 *fill*         0x000000004022fc7a        0x2 
 .irom0.text    0x000000004022fc7c      0x2b6 /opt/esp-open-sdk/sdk/lib/libwpa.a(common.o)
                                        0x302 (size before relaxing)
                0x000000004022fc7c                inc_byte_array
                0x000000004022fcd0                hex2byte
                0x000000004022fd04                hexstr2bin
                0x000000004022fd50                wpa_get_ntp_timestamp
                0x000000004022fde8                wpa_config_parse_string
                0x000000004022feec                dup_binstr
 *fill*         0x000000004022ff32        0x2 
 .irom0.text    0x000000004022ff34       0xcc /opt/esp-open-sdk/sdk/lib/libwpa.a(os_xtensa.o)
                                         0xdc (size before relaxing)
                0x000000004022ff38                ets_strdup
                0x000000004022ff7c                os_get_time
                0x000000004022ff80                r_rand
                0x000000004022ff94                os_random
                0x000000004022ffa4                os_get_random
 .irom0.text    0x0000000040230000     0x1c86 /opt/esp-open-sdk/sdk/lib/libwpa.a(wpa_auth.o)
                                       0x1f66 (size before relaxing)
                0x000000004023014c                wpa_auth_for_each_sta
                0x00000000402302cc                wpa_init
                0x000000004023035c                wpa_auth_sta_init
                0x00000000402303a4                wpa_auth_sta_associated
                0x0000000040230410                wpa_auth_sta_no_wpa
                0x000000004023046c                wpa_auth_sta_deinit
                0x000000004023053c                wpa_receive
                0x00000000402309a0                __wpa_send_eapol
                0x0000000040230ec4                wpa_remove_ptk
                0x0000000040230f10                wpa_auth_sm_event
 *fill*         0x0000000040231c86        0x2 
 .irom0.text    0x0000000040231c88      0x582 /opt/esp-open-sdk/sdk/lib/libwpa.a(wpa_auth_ie.o)
                                        0x5f6 (size before relaxing)
                0x0000000040231d4c                wpa_write_rsn_ie
                0x0000000040231e58                wpa_auth_gen_wpa_ie
                0x0000000040231ee8                wpa_add_kde
                0x0000000040231f54                wpa_validate_wpa_ie
                0x0000000040232160                wpa_parse_kde_ies
                0x00000000402321fc                wpa_auth_uses_mfp
 *fill*         0x000000004023220a        0x2 
 .irom0.text    0x000000004023220c     0x14d0 /opt/esp-open-sdk/sdk/lib/libwpa.a(wpa.o)
                                       0x1708 (size before relaxing)
                0x0000000040233198                wpa_sm_rx_eapol
                0x0000000040233310                wpa_register
                0x000000004023333c                wpa_set_profile
                0x0000000040233354                wpa_set_pmk
                0x0000000040233380                wpa_set_bss
                0x0000000040233584                pp_michael_mic_failure
                0x0000000040233628                eapol_txcb
                0x00000000402336b4                wpa_sm_set_state
 .irom0.text    0x00000000402336dc      0x76a /opt/esp-open-sdk/sdk/lib/libwpa.a(wpa_common.o)
                                        0x7fa (size before relaxing)
                0x0000000040233824                wpa_parse_wpa_ie_rsn
                0x00000000402339b8                wpa_parse_wpa_ie_wpa
                0x0000000040233b48                wpa_eapol_key_mic
                0x0000000040233b88                wpa_compare_rsn_ie
                0x0000000040233bb0                wpa_pmk_to_ptk
                0x0000000040233ca0                rsn_pmkid
                0x0000000040233cfc                wpa_cipher_key_len
                0x0000000040233d20                wpa_cipher_to_alg
                0x0000000040233d48                wpa_cipher_to_suite
                0x0000000040233d9c                rsn_cipher_put_suites
                0x0000000040233dfc                wpa_cipher_put_suites
 *fill*         0x0000000040233e46        0x2 
 .irom0.text    0x0000000040233e48       0xa8 /opt/esp-open-sdk/sdk/lib/libwpa.a(wpa_debug.o)
                                         0xac (size before relaxing)
                0x0000000040233ec0                wpa_snprintf_hex_uppercase
                0x0000000040233ed4                wpa_snprintf_hex
                0x0000000040233ee8                eloop_cancel_timeout
                0x0000000040233eec                eloop_register_timeout
 .irom0.text    0x0000000040233ef0      0x325 /opt/esp-open-sdk/sdk/lib/libwpa.a(wpa_ie.o)
                                        0x341 (size before relaxing)
                0x0000000040233ef0                wpa_parse_wpa_ie
                0x0000000040233fe4                wpa_supplicant_parse_ies
                0x00000000402341e4                wpa_gen_wpa_ie
 *fill*         0x0000000040234215        0x3 
 .irom0.text    0x0000000040234218      0x418 /opt/esp-open-sdk/sdk/lib/libwpa.a(wpa_main.o)
                                        0x52c (size before relaxing)
                0x000000004023421c                ppInstallKey
                0x00000000402343ac                wpa_config_profile
                0x00000000402343e0                wpa_config_bss
                0x000000004023440c                wpa_config_assoc_ie
                0x0000000040234420                dhcp_bind_check
                0x0000000040234454                eagle_auth_done
                0x00000000402345d0                wpa_neg_complete
                0x00000000402345f8                wpa_attach
 .irom0.text    0x0000000040234630       0xd6 /opt/esp-open-sdk/sdk/lib/libwpa.a(wpas_glue.o)
                                         0xe2 (size before relaxing)
                0x00000000402346a0                wpa_sm_alloc_eapol
                0x00000000402346e0                wpa_sm_deauthenticate
                0x00000000402346fc                wpa_sm_mlme_setprotection
                0x0000000040234700                wpa_sm_get_beacon_ie
                0x0000000040234704                wpa_sm_disassociate
 *fill*         0x0000000040234706        0x2 
 .irom0.text    0x0000000040234708       0xdf /opt/esp-open-sdk/sdk/lib/libwpa.a(aes-wrap.o)
                                        0x103 (size before relaxing)
                0x0000000040234708                aes_wrap
 *fill*         0x00000000402347e7        0x1 
 .irom0.text    0x00000000402347e8      0x4b7 /opt/esp-open-sdk/sdk/lib/libwpa.a(aes-internal-enc.o)
                                        0x4df (size before relaxing)
                0x00000000402347ec                rijndaelEncrypt
                0x0000000040234c08                aes_encrypt_init
                0x0000000040234c5c                aes_encrypt
                0x0000000040234c74                aes_encrypt_deinit
 *fill*         0x0000000040234c9f        0x1 
 .irom0.text    0x0000000040234ca0      0x304 /opt/esp-open-sdk/sdk/lib/libwpa.a(aes-internal.o)
                                        0x31c (size before relaxing)
                0x0000000040234ca4                rijndaelKeySetupEnc
 .irom0.text    0x0000000040234fa4      0x135 /opt/sming/Sming/compiler/lib//libmicrogcc.a(_divsf3.o)
                0x0000000040235020                __divsf3
 *fill*         0x00000000402350d9        0x3 
 .irom0.text    0x00000000402350dc      0x187 /opt/esp-open-sdk/sdk/lib/libnet80211.a(ieee80211_crypto_tkip.o)
                                        0x197 (size before relaxing)
 *fill*         0x0000000040235263        0x1 
 .irom0.text    0x0000000040235264       0x78 /opt/esp-open-sdk/sdk/lib/libnet80211.a(ieee80211_crypto_wep.o)
                                         0x7c (size before relaxing)
 *fill*         0x00000000402352dc        0x4 
 .irom.text     0x00000000402352e0      0x4c0 /opt/esp-open-sdk/sdk/lib/libmain.a(app_main.o)
 *fill*         0x00000000402357a0        0x0 
 .irom.text     0x00000000402357a0      0x14c /opt/esp-open-sdk/sdk/lib/libmain.a(ets_timer.o)
 *fill*         0x00000000402358ec        0x4 
 .irom.text     0x00000000402358f0       0x11 /opt/esp-open-sdk/sdk/lib/libmain.a(mem_manager.o)
 *fill*         0x0000000040235901        0xf 
 .irom.text     0x0000000040235910       0x5b /opt/esp-open-sdk/sdk/lib/libmain.a(spi_flash.o)
 *fill*         0x000000004023596b        0x0 
 *fill*         0x000000004023596b        0x5 
 .irom.text     0x0000000040235970      0x2d5 /opt/esp-open-sdk/sdk/lib/libmain.a(user_interface.o)
                0x0000000040235990                default_ssid
 *fill*         0x0000000040235c45        0x0 
 *fill*         0x0000000040235c45        0xb 
 .irom.text     0x0000000040235c50       0x63 /opt/esp-open-sdk/sdk/lib/libmain.a(eagle_lwip_if.o)
 *fill*         0x0000000040235cb3        0x1 
 .irom0.text    0x0000000040235cb4       0x4f /opt/sming/Sming/compiler/lib//libmicroc.a(__fpclassify.o)
                0x0000000040235cb4                __fpclassify
                0x0000000040235cf4                __fpclassifyd
 *fill*         0x0000000040235d03        0x0 
 *fill*         0x0000000040235d03        0x0 
 *fill*         0x0000000040235d03        0x0 
 *fill*         0x0000000040235d03        0x0 
 *fill*         0x0000000040235d03        0xd 
 .irom.text     0x0000000040235d10       0x65 /opt/esp-open-sdk/sdk/lib/libphy.a(phy_chip_v6_ana.o)
 *fill*         0x0000000040235d75        0x0 
 *fill*         0x0000000040235d75        0xb 
 .irom.text     0x0000000040235d80      0x14c /opt/esp-open-sdk/sdk/lib/libphy.a(phy_chip_v6.o)
 *fill*         0x0000000040235ecc        0x4 
 .irom.text     0x0000000040235ed0      0x1f4 /opt/esp-open-sdk/sdk/lib/libphy.a(phy_chip_v6_cal.o)
 .irom0.text    0x00000000402360c4        0xc /opt/esp-open-sdk/sdk/lib/libphy.a(phy_chip_v6_unused.o)
                0x00000000402360c4                chip_v6_set_sense
                0x00000000402360c8                chip_v6_get_sense
                0x00000000402360cc                chip_v6_unset_chanfreq
 *fill*         0x00000000402360d0        0x0 
 *fill*         0x00000000402360d0        0x0 
 .irom.text     0x00000000402360d0       0x50 /opt/esp-open-sdk/sdk/lib/libpp.a(if_hwctrl.o)
 *fill*         0x0000000040236120        0x0 
 .irom.text     0x0000000040236120       0x2f /opt/esp-open-sdk/sdk/lib/libpp.a(lmac.o)
 *fill*         0x000000004023614f        0x0 
 *fill*         0x000000004023614f        0x1 
 .irom.text     0x0000000040236150      0x10d /opt/esp-open-sdk/sdk/lib/libpp.a(pm.o)
 *fill*         0x000000004023625d        0x0 
 *fill*         0x000000004023625d        0x3 
 .irom.text     0x0000000040236260       0xf8 /opt/esp-open-sdk/sdk/lib/libpp.a(pm_for_bcn_only_mode.o)
 *fill*         0x0000000040236358        0x8 
 .irom.text     0x0000000040236360       0x5b /opt/esp-open-sdk/sdk/lib/libpp.a(pp.o)
 *fill*         0x00000000402363bb        0x0 
 *fill*         0x00000000402363bb        0x0 
 *fill*         0x00000000402363bb        0x5 
 .irom.text     0x00000000402363c0       0x38 /opt/esp-open-sdk/sdk/lib/libpp.a(trc.o)
 *fill*         0x00000000402363f8        0x0 
 .irom.text     0x00000000402363f8        0x7 /opt/esp-open-sdk/sdk/lib/libpp.a(wdev.o)
 *fill*         0x00000000402363ff        0x0 
 *fill*         0x00000000402363ff        0x1 
 .irom.text     0x0000000040236400        0xa /opt/esp-open-sdk/sdk/lib/libpp.a(esf_buf.o)
 *fill*         0x000000004023640a        0x0 
 *fill*         0x000000004023640a        0x6 
 .irom.text     0x0000000040236410       0x82 /opt/esp-open-sdk/sdk/lib/libnet80211.a(ieee80211.o)
                0x0000000040236420                ieee80211_opcap
 *fill*         0x0000000040236492        0x0 
 *fill*         0x0000000040236492        0x0 
 *fill*         0x0000000040236492        0xe 
 .irom.text     0x00000000402364a0       0x5b /opt/esp-open-sdk/sdk/lib/libnet80211.a(ieee80211_hostap.o)
 *fill*         0x00000000402364fb        0x0 
 *fill*         0x00000000402364fb        0x5 
 .irom.text     0x0000000040236500       0x19 /opt/esp-open-sdk/sdk/lib/libnet80211.a(ieee80211_ht.o)
 *fill*         0x0000000040236519        0x0 
 *fill*         0x0000000040236519        0x7 
 .irom.text     0x0000000040236520       0x12 /opt/esp-open-sdk/sdk/lib/libnet80211.a(ieee80211_input.o)
 *fill*         0x0000000040236532        0x0 
 *fill*         0x0000000040236532        0xe 
 .irom.text     0x0000000040236540       0x43 /opt/esp-open-sdk/sdk/lib/libnet80211.a(ieee80211_mesh_quick.o)
 *fill*         0x0000000040236583        0x0 
 *fill*         0x0000000040236583        0xd 
 .irom.text     0x0000000040236590       0x1d /opt/esp-open-sdk/sdk/lib/libnet80211.a(ieee80211_output.o)
 *fill*         0x00000000402365ad        0x0 
 *fill*         0x00000000402365ad        0x3 
 .irom.text     0x00000000402365b0      0x1b8 /opt/esp-open-sdk/sdk/lib/libnet80211.a(ieee80211_phy.o)
 *fill*         0x0000000040236768        0x0 
 *fill*         0x0000000040236768        0x8 
 .irom.text     0x0000000040236770       0x1c /opt/esp-open-sdk/sdk/lib/libnet80211.a(ieee80211_proto.o)
 *fill*         0x000000004023678c        0x0 
 *fill*         0x000000004023678c        0x4 
 .irom.text     0x0000000040236790       0x99 /opt/esp-open-sdk/sdk/lib/libnet80211.a(ieee80211_scan.o)
 *fill*         0x0000000040236829        0x0 
 *fill*         0x0000000040236829        0x7 
 .irom.text     0x0000000040236830       0x26 /opt/esp-open-sdk/sdk/lib/libnet80211.a(ieee80211_sta.o)
 *fill*         0x0000000040236856        0x0 
 *fill*         0x0000000040236856        0x0 
 *fill*         0x0000000040236856        0xa 
 .irom.text     0x0000000040236860      0x187 /opt/esp-open-sdk/sdk/lib/libnet80211.a(wl_cnx.o)
 *fill*         0x00000000402369e7        0x0 
 *fill*         0x00000000402369e7        0x0 
 *fill*         0x00000000402369e7        0x9 
 .irom.text     0x00000000402369f0       0x83 /opt/esp-open-sdk/sdk/lib/libnet80211.a(ieee80211_action_vendor.o)
 *fill*         0x0000000040236a73        0x0 
 *fill*         0x0000000040236a73        0x1 
 .irom.text     0x0000000040236a74       0x18 /opt/esp-open-sdk/sdk/lib/libnet80211.a(ieee80211_crypto_ccmp.o)
                0x0000000040236a74                ccmp
 *fill*         0x0000000040236a8c        0x0 
 *fill*         0x0000000040236a8c        0x4 
 .irom.text     0x0000000040236a90       0x1e /opt/esp-open-sdk/sdk/lib/liblwip.a(dhcp.o)
 *fill*         0x0000000040236aae        0x0 
 *fill*         0x0000000040236aae        0x2 
 .irom.text     0x0000000040236ab0       0x45 /opt/esp-open-sdk/sdk/lib/liblwip.a(dhcpserver.o)
 *fill*         0x0000000040236af5        0x0 
 *fill*         0x0000000040236af5        0x3 
 .irom.text     0x0000000040236af8        0x6 /opt/esp-open-sdk/sdk/lib/liblwip.a(dns.o)
 *fill*         0x0000000040236afe        0x0 
 *fill*         0x0000000040236afe        0x2 
 .irom.text     0x0000000040236b00       0xab /opt/esp-open-sdk/sdk/lib/liblwip.a(espconn_tcp.o)
 *fill*         0x0000000040236bab        0x0 
 *fill*         0x0000000040236bab        0x5 
 .irom.text     0x0000000040236bb0        0x9 /opt/esp-open-sdk/sdk/lib/liblwip.a(etharp.o)
 *fill*         0x0000000040236bb9        0x0 
 *fill*         0x0000000040236bb9        0x3 
 .irom.text     0x0000000040236bbc        0x8 /opt/esp-open-sdk/sdk/lib/liblwip.a(ip_addr.o)
                0x0000000040236bbc                ip_addr_any
                0x0000000040236bc0                ip_addr_broadcast
 *fill*         0x0000000040236bc4        0xc 
 .irom.text     0x0000000040236bd0       0x11 /opt/esp-open-sdk/sdk/lib/liblwip.a(ip.o)
 *fill*         0x0000000040236be1        0xf 
 .irom.text     0x0000000040236bf0       0x28 /opt/esp-open-sdk/sdk/lib/liblwip.a(memp.o)
                0x0000000040236bf0                memp_sizes
 *fill*         0x0000000040236c18        0x0 
 *fill*         0x0000000040236c18        0x0 
 .irom.text     0x0000000040236c18        0x7 /opt/esp-open-sdk/sdk/lib/liblwip.a(pbuf.o)
 *fill*         0x0000000040236c1f        0x0 
 *fill*         0x0000000040236c1f        0x1 
 .irom.text     0x0000000040236c20        0x6 /opt/esp-open-sdk/sdk/lib/liblwip.a(raw.o)
 *fill*         0x0000000040236c26        0xa 
 .irom.text     0x0000000040236c30        0x9 /opt/esp-open-sdk/sdk/lib/liblwip.a(tcp_in.o)
 *fill*         0x0000000040236c39        0x0 
 *fill*         0x0000000040236c39        0x7 
 .irom.text     0x0000000040236c40       0x3d /opt/esp-open-sdk/sdk/lib/liblwip.a(tcp.o)
                0x0000000040236c50                tcp_pcb_lists
                0x0000000040236c60                tcp_persist_backoff
                0x0000000040236c70                tcp_backoff
 *fill*         0x0000000040236c7d        0x0 
 *fill*         0x0000000040236c7d        0x3 
 .irom.text     0x0000000040236c80        0xa /opt/esp-open-sdk/sdk/lib/liblwip.a(tcp_out.o)
 *fill*         0x0000000040236c8a        0x0 
 *fill*         0x0000000040236c8a        0x6 
 .irom.text     0x0000000040236c90        0x9 /opt/esp-open-sdk/sdk/lib/liblwip.a(timers.o)
 *fill*         0x0000000040236c99        0x0 
 *fill*         0x0000000040236c99        0x7 
 .irom.text     0x0000000040236ca0        0x6 /opt/esp-open-sdk/sdk/lib/liblwip.a(udp.o)
 *fill*         0x0000000040236ca6        0x0 
 *fill*         0x0000000040236ca6        0xa 
 .irom.text     0x0000000040236cb0        0xa /opt/esp-open-sdk/sdk/lib/liblwip.a(espconn.o)
 *fill*         0x0000000040236cba        0x0 
 *fill*         0x0000000040236cba        0x6 
 .irom.text     0x0000000040236cc0        0xe /opt/esp-open-sdk/sdk/lib/liblwip.a(espconn_udp.o)
 *fill*         0x0000000040236cce        0x0 
 *fill*         0x0000000040236cce        0x0 
 *fill*         0x0000000040236cce        0x2 
 .irom.text     0x0000000040236cd0        0x7 /opt/esp-open-sdk/sdk/lib/liblwip.a(igmp.o)
 *fill*         0x0000000040236cd7        0x1 
 .irom0.text    0x0000000040236cd8      0x298 /opt/esp-open-sdk/sdk/lib/liblwip.a(inet_chksum.o)
                0x0000000040236d50                inet_chksum_pseudo
                0x0000000040236e10                inet_chksum_pseudo_partial
                0x0000000040236eec                inet_chksum
                0x0000000040236f04                inet_chksum_pbuf
 *fill*         0x0000000040236f70        0x0 
 .irom.text     0x0000000040236f70        0xc /opt/esp-open-sdk/sdk/lib/libwpa.a(ap_config.o)
 *fill*         0x0000000040236f7c        0x4 
 .irom.text     0x0000000040236f80        0x9 /opt/esp-open-sdk/sdk/lib/libwpa.a(common.o)
 *fill*         0x0000000040236f89        0x0 
 *fill*         0x0000000040236f89        0x7 
 .irom.text     0x0000000040236f90        0xc /opt/esp-open-sdk/sdk/lib/libwpa.a(os_xtensa.o)
 *fill*         0x0000000040236f9c        0x4 
 .irom.text     0x0000000040236fa0       0x74 /opt/esp-open-sdk/sdk/lib/libwpa.a(wpa_auth.o)
 *fill*         0x0000000040237014        0xc 
 .irom.text     0x0000000040237020        0xe /opt/esp-open-sdk/sdk/lib/libwpa.a(wpa_auth_ie.o)
 *fill*         0x000000004023702e        0x0 
 *fill*         0x000000004023702e        0x2 
 .irom.text     0x0000000040237030       0x17 /opt/esp-open-sdk/sdk/lib/libwpa.a(wpa.o)
 *fill*         0x0000000040237047        0x0 
 *fill*         0x0000000040237047        0x9 
 .irom.text     0x0000000040237050       0x1c /opt/esp-open-sdk/sdk/lib/libwpa.a(wpa_common.o)
 *fill*         0x000000004023706c        0x0 
 *fill*         0x000000004023706c        0x4 
 .irom.text     0x0000000040237070       0x67 /opt/esp-open-sdk/sdk/lib/libwpa.a(wpa_main.o)
 *fill*         0x00000000402370d7        0x0 
 *fill*         0x00000000402370d7        0x0 
 *fill*         0x00000000402370d7        0x0 
 *fill*         0x00000000402370d7        0x9 
 .irom.text     0x00000000402370e0       0x13 /opt/esp-open-sdk/sdk/lib/libwpa.a(aes-internal-enc.o)
 *fill*         0x00000000402370f3        0x0 
 *fill*         0x00000000402370f3        0x0 
 *fill*         0x00000000402370f3        0x1 
 .irom.text     0x00000000402370f4       0x18 /opt/esp-open-sdk/sdk/lib/libnet80211.a(ieee80211_crypto_tkip.o)
                0x00000000402370f4                tkip
 .irom.text     0x000000004023710c       0x18 /opt/esp-open-sdk/sdk/lib/libnet80211.a(ieee80211_crypto_wep.o)
                0x000000004023710c                wep
 out/build/app_app.a:*(.literal .text .literal.* .text.* .stub .gnu.warning .gnu.linkonce.literal.* .gnu.linkonce.t.*.literal .gnu.linkonce.t.*)
 .text._Z5blinkv
                0x0000000040237124       0x2d out/build/app_app.a(application.o)
                                         0x31 (size before relaxing)
                0x0000000040237128                _Z5blinkv
 *fill*         0x0000000040237151        0x3 
 .text._Z4initv
                0x0000000040237154       0x3b out/build/app_app.a(application.o)
                                         0x43 (size before relaxing)
                0x0000000040237164                _Z4initv
 *fill*         0x000000004023718f        0x1 
 .text.startup._GLOBAL__sub_I_procTimer
                0x0000000040237190       0x31 out/build/app_app.a(application.o)
                                         0x49 (size before relaxing)
 *fill*         0x00000000402371c1        0x3 
 .text.exit._GLOBAL__sub_D_procTimer
                0x00000000402371c4       0x15 out/build/app_app.a(application.o)
                                         0x1d (size before relaxing)
 *fill*         0x00000000402371d9        0x0 
 *fill*         0x00000000402371d9        0x0 
 *fill*         0x00000000402371d9        0x0 
 *libsming.a:*(.literal .text .literal.* .text.* .stub .gnu.warning .gnu.linkonce.literal.* .gnu.linkonce.t.*.literal .gnu.linkonce.t.*)
 *fill*         0x00000000402371d9        0x3 
 .text._ZN17ESP01_DescriptionC2Ev
                0x00000000402371dc       0x3f /opt/sming/Sming/compiler/lib//libsming.a(user_main.o)
                0x00000000402371e0                _ZN17ESP01_DescriptionC2Ev
                0x00000000402371e0                _ZN17ESP01_DescriptionC1Ev
 *fill*         0x000000004023721b        0x1 
 .text.user_init
                0x000000004023721c       0x2c /opt/sming/Sming/compiler/lib//libsming.a(user_main.o)
                                         0x4c (size before relaxing)
                0x0000000040237220                user_init
 .text.startup._GLOBAL__sub_I_user_main_cpp
                0x0000000040237248       0x28 /opt/sming/Sming/compiler/lib//libsming.a(user_main.o)
                                         0x38 (size before relaxing)
 .text._ZN6VectorI8DelegateIFvvEEEixEj
                0x0000000040237270       0x22 /opt/sming/Sming/compiler/lib//libsming.a(System.o)
                                         0x26 (size before relaxing)
                0x0000000040237270                _ZN6VectorI8DelegateIFvvEEEixEj
 *fill*         0x0000000040237292        0x2 
 .text._ZN6VectorIP19ISystemReadyHandlerEixEj
                0x0000000040237294       0x22 /opt/sming/Sming/compiler/lib//libsming.a(System.o)
                                         0x26 (size before relaxing)
                0x0000000040237294                _ZN6VectorIP19ISystemReadyHandlerEixEj
 *fill*         0x00000000402372b6        0x2 
 .text._ZNK6VectorIP19ISystemReadyHandlerEixEj
                0x00000000402372b8       0x22 /opt/sming/Sming/compiler/lib//libsming.a(System.o)
                                         0x26 (size before relaxing)
                0x00000000402372b8                _ZNK6VectorIP19ISystemReadyHandlerEixEj
 *fill*         0x00000000402372da        0x2 
 .text._ZNK6VectorI8DelegateIFvvEEEixEj
                0x00000000402372dc       0x22 /opt/sming/Sming/compiler/lib//libsming.a(System.o)
                                         0x26 (size before relaxing)
                0x00000000402372dc                _ZNK6VectorI8DelegateIFvvEEEixEj
 *fill*         0x00000000402372fe        0x2 
 .text._ZN11SystemClassC2Ev
                0x0000000040237300       0x6c /opt/sming/Sming/compiler/lib//libsming.a(System.o)
                                         0x74 (size before relaxing)
                0x0000000040237308                _ZN11SystemClassC2Ev
                0x0000000040237308                _ZN11SystemClassC1Ev
 .text._ZN11SystemClass10initializeEv
                0x000000004023736c       0x21 /opt/sming/Sming/compiler/lib//libsming.a(System.o)
                                         0x25 (size before relaxing)
                0x0000000040237370                _ZN11SystemClass10initializeEv
 *fill*         0x000000004023738d        0x3 
 .text._ZN6VectorI8DelegateIFvvEEE17removeAllElementsEv
                0x0000000040237390       0x50 /opt/sming/Sming/compiler/lib//libsming.a(System.o)
                                         0x54 (size before relaxing)
                0x0000000040237390                _ZN6VectorI8DelegateIFvvEEE17removeAllElementsEv
 .text._ZN6VectorI8DelegateIFvvEEED2Ev
                0x00000000402373e0       0x25 /opt/sming/Sming/compiler/lib//libsming.a(System.o)
                                         0x35 (size before relaxing)
                0x00000000402373e0                _ZN6VectorI8DelegateIFvvEEED1Ev
                0x00000000402373e0                _ZN6VectorI8DelegateIFvvEEED2Ev
 *fill*         0x0000000040237405        0x3 
 .text._ZN6VectorI8DelegateIFvvEEED0Ev
                0x0000000040237408       0x1d /opt/sming/Sming/compiler/lib//libsming.a(System.o)
                                         0x29 (size before relaxing)
                0x0000000040237408                _ZN6VectorI8DelegateIFvvEEED0Ev
 *fill*         0x0000000040237425        0x3 
 .text._ZN6VectorIP19ISystemReadyHandlerE17removeAllElementsEv
                0x0000000040237428       0x34 /opt/sming/Sming/compiler/lib//libsming.a(System.o)
                                         0x38 (size before relaxing)
                0x0000000040237428                _ZN6VectorIP19ISystemReadyHandlerE17removeAllElementsEv
 .text._ZN6VectorIP19ISystemReadyHandlerED2Ev
                0x000000004023745c       0x25 /opt/sming/Sming/compiler/lib//libsming.a(System.o)
                                         0x35 (size before relaxing)
                0x000000004023745c                _ZN6VectorIP19ISystemReadyHandlerED2Ev
                0x000000004023745c                _ZN6VectorIP19ISystemReadyHandlerED1Ev
 *fill*         0x0000000040237481        0x3 
 .text._ZN6VectorIP19ISystemReadyHandlerED0Ev
                0x0000000040237484       0x1d /opt/sming/Sming/compiler/lib//libsming.a(System.o)
                                         0x29 (size before relaxing)
                0x0000000040237484                _ZN6VectorIP19ISystemReadyHandlerED0Ev
 *fill*         0x00000000402374a1        0x3 
 .text._ZN11SystemClass12readyHandlerEv
                0x00000000402374a4       0x66 /opt/sming/Sming/compiler/lib//libsming.a(System.o)
                                         0x82 (size before relaxing)
                0x00000000402374a4                _ZN11SystemClass12readyHandlerEv
 *fill*         0x000000004023750a        0x2 
 .text._ZN11SystemClass18staticReadyHandlerEv
                0x000000004023750c       0x15 /opt/sming/Sming/compiler/lib//libsming.a(System.o)
                                         0x1d (size before relaxing)
                0x000000004023750c                _ZN11SystemClass18staticReadyHandlerEv
 *fill*         0x0000000040237521        0x3 
 .text.startup._GLOBAL__sub_I_System
                0x0000000040237524       0x15 /opt/sming/Sming/compiler/lib//libsming.a(System.o)
                                         0x1d (size before relaxing)
 *fill*         0x0000000040237539        0x3 
 .text.exit._GLOBAL__sub_D_System
                0x000000004023753c       0x1e /opt/sming/Sming/compiler/lib//libsming.a(System.o)
                                         0x2e (size before relaxing)
 *fill*         0x000000004023755a        0x2 
 .text.cpp_core_initialize
                0x000000004023755c       0x2b /opt/sming/Sming/compiler/lib//libsming.a(esp_cplusplus.o)
                0x0000000040237564                cpp_core_initialize
 *fill*         0x0000000040237587        0x1 
 .text._Znaj    0x0000000040237588        0xf /opt/sming/Sming/compiler/lib//libsming.a(esp_cplusplus.o)
                                         0x17 (size before relaxing)
                0x0000000040237588                _Znaj
 *fill*         0x0000000040237597        0x1 
 .text._ZdlPv   0x0000000040237598       0x11 /opt/sming/Sming/compiler/lib//libsming.a(esp_cplusplus.o)
                                         0x18 (size before relaxing)
                0x0000000040237598                _ZdlPv
 *fill*         0x00000000402375a9        0x3 
 .text._ZdaPv   0x00000000402375ac       0x11 /opt/sming/Sming/compiler/lib//libsming.a(esp_cplusplus.o)
                                         0x18 (size before relaxing)
                0x00000000402375ac                _ZdaPv
 *fill*         0x00000000402375bd        0x3 
 .text.m_vsnprintf
                0x00000000402375c0      0x314 /opt/sming/Sming/compiler/lib//libsming.a(m_printf.o)
                                        0x32c (size before relaxing)
                0x00000000402375c0                m_vsnprintf
 .text.m_printf
                0x00000000402378d4       0x72 /opt/sming/Sming/compiler/lib//libsming.a(m_printf.o)
                                         0x7a (size before relaxing)
                0x00000000402378d8                m_printf
 *fill*         0x0000000040237946        0x2 
 .text.startup._GLOBAL__sub_I_cbc_printchar
                0x0000000040237948       0x28 /opt/sming/Sming/compiler/lib//libsming.a(m_printf.o)
                                         0x38 (size before relaxing)
 .text.ltoa_w   0x0000000040237970       0xda /opt/sming/Sming/compiler/lib//libsming.a(stringconversion.o)
                                         0xe6 (size before relaxing)
                0x0000000040237980                ltoa_w
 *fill*         0x0000000040237a4a        0x2 
 .text.ltoa     0x0000000040237a4c       0x14 /opt/sming/Sming/compiler/lib//libsming.a(stringconversion.o)
                                         0x18 (size before relaxing)
                0x0000000040237a4c                ltoa
 .text.ultoa_wp
                0x0000000040237a60       0xb6 /opt/sming/Sming/compiler/lib//libsming.a(stringconversion.o)
                                         0xd2 (size before relaxing)
                0x0000000040237a60                ultoa_wp
 *fill*         0x0000000040237b16        0x2 
 .text.ultoa_w  0x0000000040237b18       0x13 /opt/sming/Sming/compiler/lib//libsming.a(stringconversion.o)
                                         0x1b (size before relaxing)
                0x0000000040237b18                ultoa_w
 *fill*         0x0000000040237b2b        0x1 
 .text.ultoa    0x0000000040237b2c       0x14 /opt/sming/Sming/compiler/lib//libsming.a(stringconversion.o)
                                         0x18 (size before relaxing)
                0x0000000040237b2c                ultoa
 .text.dtostrf  0x0000000040237b40      0x2fe /opt/sming/Sming/compiler/lib//libsming.a(stringconversion.o)
                                        0x356 (size before relaxing)
                0x0000000040237b7c                dtostrf
 *fill*         0x0000000040237e3e        0x2 
 .text._ZNK9IPAddress7printToER5Print
                0x0000000040237e40       0x53 /opt/sming/Sming/compiler/lib//libsming.a(IPAddress.o)
                                         0x67 (size before relaxing)
                0x0000000040237e40                _ZNK9IPAddress7printToER5Print
 *fill*         0x0000000040237e93        0x1 
 .text._ZN9IPAddressC2Ehhhh
                0x0000000040237e94       0x17 /opt/sming/Sming/compiler/lib//libsming.a(IPAddress.o)
                0x0000000040237e98                _ZN9IPAddressC1Ehhhh
                0x0000000040237e98                _ZN9IPAddressC2Ehhhh
 *fill*         0x0000000040237eab        0x1 
 .text.startup._GLOBAL__sub_I__ZN9IPAddressC2Ev
                0x0000000040237eac       0x33 /opt/sming/Sming/compiler/lib//libsming.a(IPAddress.o)
                                         0x3b (size before relaxing)
 *fill*         0x0000000040237edf        0x1 
 .text._ZN5Print5writeEPKc
                0x0000000040237ee0       0x2e /opt/sming/Sming/compiler/lib//libsming.a(Print.o)
                                         0x32 (size before relaxing)
                0x0000000040237ee0                _ZN5Print5writeEPKc
 *fill*         0x0000000040237f0e        0x2 
 .text._ZN5Print11printNumberEmh
                0x0000000040237f10       0x79 /opt/sming/Sming/compiler/lib//libsming.a(Print.o)
                                         0x84 (size before relaxing)
                0x0000000040237f10                _ZN5Print11printNumberEmh
 *fill*         0x0000000040237f89        0x3 
 .text._ZN5Print5printEmi
                0x0000000040237f8c       0x21 /opt/sming/Sming/compiler/lib//libsming.a(Print.o)
                                         0x28 (size before relaxing)
                0x0000000040237f8c                _ZN5Print5printEmi
 *fill*         0x0000000040237fad        0x3 
 .text._ZN5Print5printEhi
                0x0000000040237fb0       0x15 /opt/sming/Sming/compiler/lib//libsming.a(Print.o)
                                         0x19 (size before relaxing)
                0x0000000040237fb0                _ZN5Print5printEhi
 *fill*         0x0000000040237fc5        0x3 
 .text.startup._GLOBAL__sub_I__ZN5Print5writeEPKhj
                0x0000000040237fc8       0x21 /opt/sming/Sming/compiler/lib//libsming.a(Print.o)
                                         0x25 (size before relaxing)
 *fill*         0x0000000040237fe9        0x3 
 .text.startup._GLOBAL__sub_I__ZN6StringC2EPKc
                0x0000000040237fec       0x21 /opt/sming/Sming/compiler/lib//libsming.a(WString.o)
                                         0x25 (size before relaxing)
 *fill*         0x000000004023800d        0x3 
 .text._Z41__static_initialization_and_destruction_0ii$part$0
                0x0000000040238010       0x47 /opt/sming/Sming/compiler/lib//libsming.a(Interrupts.o)
 *fill*         0x0000000040238057        0x1 
 .text.startup._GLOBAL__sub_I__gpioInterruptsList
                0x0000000040238058       0x31 /opt/sming/Sming/compiler/lib//libsming.a(Interrupts.o)
                                         0x39 (size before relaxing)
 *fill*         0x0000000040238089        0x3 
 .text.exit._GLOBAL__sub_D__gpioInterruptsList
                0x000000004023808c        0xf /opt/sming/Sming/compiler/lib//libsming.a(Interrupts.o)
                                         0x17 (size before relaxing)
 *fill*         0x000000004023809b        0x1 
 .text._Z10isInputPint
                0x000000004023809c       0x32 /opt/sming/Sming/compiler/lib//libsming.a(Digital.o)
                0x00000000402380a4                _Z10isInputPint
 *fill*         0x00000000402380ce        0x2 
 .text._Z6pullupt
                0x00000000402380d0       0x2a /opt/sming/Sming/compiler/lib//libsming.a(Digital.o)
                0x00000000402380d4                _Z6pullupt
 *fill*         0x00000000402380fa        0x2 
 .text._Z7pinModeth
                0x00000000402380fc      0x10c /opt/sming/Sming/compiler/lib//libsming.a(Digital.o)
                                        0x123 (size before relaxing)
                0x0000000040238110                _Z7pinModeth
 *fill*         0x0000000040238208        0x0 
 .text._Z8noPullupt
                0x0000000040238208       0x26 /opt/sming/Sming/compiler/lib//libsming.a(Digital.o)
                                         0x2a (size before relaxing)
                0x0000000040238208                _Z8noPullupt
 *fill*         0x000000004023822e        0x2 
 .text._Z12digitalWriteth
                0x0000000040238230       0x78 /opt/sming/Sming/compiler/lib//libsming.a(Digital.o)
                                         0x8c (size before relaxing)
                0x000000004023823c                _Z12digitalWriteth
 .text.startup._GLOBAL__sub_I__Z7pinModeth
                0x00000000402382a8       0x21 /opt/sming/Sming/compiler/lib//libsming.a(Digital.o)
                                         0x25 (size before relaxing)
 *fill*         0x00000000402382c9        0x3 
 .text._ZN5TimerC2Ev
                0x00000000402382cc       0x1e /opt/sming/Sming/compiler/lib//libsming.a(Timer.o)
                                         0x26 (size before relaxing)
                0x00000000402382cc                _ZN5TimerC1Ev
                0x00000000402382cc                _ZN5TimerC2Ev
 *fill*         0x00000000402382ea        0x2 
 .text._ZN5TimerD2Ev
                0x00000000402382ec       0x31 /opt/sming/Sming/compiler/lib//libsming.a(Timer.o)
                0x00000000402382f0                _ZN5TimerD1Ev
                0x00000000402382f0                _ZN5TimerD2Ev
 *fill*         0x000000004023831d        0x3 
 .literal._ZN17ESP01_DescriptionC5Ev
                0x0000000040238320        0x0 /opt/sming/Sming/compiler/lib//libsming.a(user_main.o)
 *fill*         0x0000000040238320        0x0 
 .literal._ZNK6VectorI8DelegateIFvvEEE5countEv
                0x0000000040238320        0x0 /opt/sming/Sming/compiler/lib//libsming.a(System.o)
 .literal._ZNK6VectorIP19ISystemReadyHandlerE5countEv
                0x0000000040238320        0x0 /opt/sming/Sming/compiler/lib//libsming.a(System.o)
 .literal._ZN6VectorI8DelegateIFvvEEEixEj
                0x0000000040238320        0x0 /opt/sming/Sming/compiler/lib//libsming.a(System.o)
 .literal._ZN6VectorIP19ISystemReadyHandlerEixEj
                0x0000000040238320        0x0 /opt/sming/Sming/compiler/lib//libsming.a(System.o)
 .literal._ZNK6VectorIP19ISystemReadyHandlerEixEj
                0x0000000040238320        0x0 /opt/sming/Sming/compiler/lib//libsming.a(System.o)
 .literal._ZNK6VectorI8DelegateIFvvEEEixEj
                0x0000000040238320        0x0 /opt/sming/Sming/compiler/lib//libsming.a(System.o)
 .literal._ZN6VectorI8DelegateIFvvEEE17removeAllElementsEv
                0x0000000040238320        0x0 /opt/sming/Sming/compiler/lib//libsming.a(System.o)
 .literal._ZN6VectorI8DelegateIFvvEEED5Ev
                0x0000000040238320        0x0 /opt/sming/Sming/compiler/lib//libsming.a(System.o)
 .literal._ZN6VectorI8DelegateIFvvEEED0Ev
                0x0000000040238320        0x0 /opt/sming/Sming/compiler/lib//libsming.a(System.o)
 .literal._ZN6VectorIP19ISystemReadyHandlerE17removeAllElementsEv
                0x0000000040238320        0x0 /opt/sming/Sming/compiler/lib//libsming.a(System.o)
 .literal._ZN6VectorIP19ISystemReadyHandlerED5Ev
                0x0000000040238320        0x0 /opt/sming/Sming/compiler/lib//libsming.a(System.o)
 .literal._ZN6VectorIP19ISystemReadyHandlerED0Ev
                0x0000000040238320        0x0 /opt/sming/Sming/compiler/lib//libsming.a(System.o)
 .text._ZNK6VectorI8DelegateIFvvEEE5countEv
                0x0000000040238320        0x4 /opt/sming/Sming/compiler/lib//libsming.a(System.o)
                0x0000000040238320                _ZNK6VectorI8DelegateIFvvEEE5countEv
 .text._ZNK6VectorIP19ISystemReadyHandlerE5countEv
                0x0000000040238324        0x4 /opt/sming/Sming/compiler/lib//libsming.a(System.o)
                0x0000000040238324                _ZNK6VectorIP19ISystemReadyHandlerE5countEv
 *fill*         0x0000000040238328        0x0 
 *fill*         0x0000000040238328        0x0 
 *fill*         0x0000000040238328        0x0 
 *fill*         0x0000000040238328        0x0 
 *fill*         0x0000000040238328        0x0 
 *fill*         0x0000000040238328        0x0 
 *fill*         0x0000000040238328        0x0 
 *fill*         0x0000000040238328        0x0 
 *fill*         0x0000000040238328        0x0 
 *fill*         0x0000000040238328        0x0 
 *fill*         0x0000000040238328        0x0 
 *fill*         0x0000000040238328        0x0 
 *fill*         0x0000000040238328        0x0 
 *fill*         0x0000000040238328        0x0 
 *fill*         0x0000000040238328        0x0 
 *fill*         0x0000000040238328        0x0 
 *fill*         0x0000000040238328        0x0 
 *fill*         0x0000000040238328        0x0 
 *fill*         0x0000000040238328        0x0 
 *fill*         0x0000000040238328        0x0 
 *fill*         0x0000000040238328        0x0 
 *fill*         0x0000000040238328        0x0 
 *fill*         0x0000000040238328        0x0 
 .literal._ZN5Print5writeEPKc
                0x0000000040238328        0x0 /opt/sming/Sming/compiler/lib//libsming.a(Print.o)
 *fill*         0x0000000040238328        0x0 
 .text._ZN5Print5printEc
                0x0000000040238328       0x17 /opt/sming/Sming/compiler/lib//libsming.a(Print.o)
                0x0000000040238328                _ZN5Print5printEc
 *fill*         0x000000004023833f        0x0 
 *fill*         0x000000004023833f        0x0 
 *fill*         0x000000004023833f        0x0 
 *fill*         0x000000004023833f        0x1 
 .literal._ZN8DelegateIFvvEE4copyERKS1_
                0x0000000040238340        0x0 /opt/sming/Sming/compiler/lib//libsming.a(Interrupts.o)
 *fill*         0x0000000040238340        0x0 
 .text._ZN8DelegateIFvvEE4copyERKS1_
                0x0000000040238340       0x3c /opt/sming/Sming/compiler/lib//libsming.a(Interrupts.o)
                0x0000000040238340                _ZN8DelegateIFvvEE4copyERKS1_
 *fill*         0x000000004023837c        0x0 
 *fill*         0x000000004023837c        0x0 
 *fill*         0x000000004023837c        0x0 
 *fill*         0x000000004023837c        0x0 
 *fill*         0x000000004023837c        0x0 
 *fill*         0x000000004023837c        0x0 
 *fill*         0x000000004023837c        0x0 
 *fill*         0x000000004023837c        0x0 
                0x000000004023837c                _irom0_text_end = ABSOLUTE (.)
                0x000000004023837c                _flash_code_end = ABSOLUTE (.)

.text           0x0000000040100000     0x5fb7
                0x0000000040100000                _stext = .
                0x0000000040100000                _text_start = ABSOLUTE (.)
 *(.UserEnter.text)
 .UserEnter.text
                0x0000000040100000        0xd /opt/esp-open-sdk/sdk/lib/libmain.a(vector.o)
                                         0x14 (size before relaxing)
                0x0000000040100004                call_user_start
                0x0000000040100010                . = ALIGN (0x10)
 *fill*         0x000000004010000d        0x3 
 *(.DebugExceptionVector.text)
 .DebugExceptionVector.text
                0x0000000040100010        0x6 /opt/esp-open-sdk/sdk/lib/libmain.a(debug-vector.o)
                0x0000000040100010                _DebugExceptionVector
                0x0000000040100020                . = ALIGN (0x10)
 *fill*         0x0000000040100016        0xa 
 *(.NMIExceptionVector.text)
 .NMIExceptionVector.text
                0x0000000040100020        0x6 /opt/esp-open-sdk/sdk/lib/libmain.a(nmi-vector.o)
                                          0xd (size before relaxing)
                0x0000000040100020                _NMIExceptionVector
                0x0000000040100030                . = ALIGN (0x10)
 *fill*         0x0000000040100026        0xa 
 *(.KernelExceptionVector.text)
 .KernelExceptionVector.text
                0x0000000040100030        0x6 /opt/esp-open-sdk/sdk/lib/libmain.a(kernel-vector.o)
                0x0000000040100030                _KernelExceptionVector
                0x0000000040100036        0x4 LONG 0x0
                0x000000004010003a        0x4 LONG 0x0
                0x000000004010003e        0x4 LONG 0x0
                0x0000000040100042        0x4 LONG 0x0
                0x0000000040100050                . = ALIGN (0x10)
 *fill*         0x0000000040100046        0xa 
 *(.UserExceptionVector.text)
 .UserExceptionVector.text
                0x0000000040100050        0x6 /opt/esp-open-sdk/sdk/lib/libmain.a(user-vector.o)
                                          0xd (size before relaxing)
                0x0000000040100050                _UserExceptionVector
                0x0000000040100056        0x4 LONG 0x0
                0x000000004010005a        0x4 LONG 0x0
                0x000000004010005e        0x4 LONG 0x0
                0x0000000040100062        0x4 LONG 0x0
                0x0000000040100070                . = ALIGN (0x10)
 *fill*         0x0000000040100066        0xa 
 *(.DoubleExceptionVector.text)
 .DoubleExceptionVector.text
                0x0000000040100070        0x6 /opt/esp-open-sdk/sdk/lib/libmain.a(double-vector.o)
                0x0000000040100070                _DoubleExceptionVector
                0x0000000040100076        0x4 LONG 0x0
                0x000000004010007a        0x4 LONG 0x0
                0x000000004010007e        0x4 LONG 0x0
                0x0000000040100082        0x4 LONG 0x0
                0x0000000040100090                . = ALIGN (0x10)
 *fill*         0x0000000040100086        0xa 
 *(.entry.text)
 *(.init.literal)
 *(.init)
 *(.literal .text .literal.* .text.* .stub .gnu.warning .gnu.linkonce.literal.* .gnu.linkonce.t.*.literal .gnu.linkonce.t.*)
 .text          0x0000000040100090       0xc7 /opt/esp-open-sdk/sdk/lib/libmain.a(nmi-vector.o)
                                         0xcb (size before relaxing)
                0x000000004010009c                _NMILevelVector
 *fill*         0x0000000040100157        0x1 
 .text          0x0000000040100158       0x1e /opt/esp-open-sdk/sdk/lib/libmain.a(user-vector.o)
                0x000000004010015c                _UserExceptionVector_1
 *fill*         0x0000000040100176        0x2 
 .text          0x0000000040100178      0x5fe /opt/esp-open-sdk/sdk/lib/libmain.a(app_main.o)
                                        0x66a (size before relaxing)
                0x00000000401001b0                Cache_Read_Enable_New
                0x00000000401001ec                NmiTimSetFunc
                0x0000000040100210                NMI_Handler
                0x0000000040100268                call_user_start_local
                0x00000000401003c8                wdt_feed
 *fill*         0x0000000040100776        0x2 
 .text          0x0000000040100778      0x3cc /opt/esp-open-sdk/sdk/lib/libmain.a(ets_timer.o)
                                        0x450 (size before relaxing)
                0x000000004010084c                ets_timer_setfn
                0x0000000040100928                ets_timer_disarm
                0x00000000401009d8                ets_timer_arm_new
 .text          0x0000000040100b44      0x30f /opt/esp-open-sdk/sdk/lib/libmain.a(mem_manager.o)
                                        0x367 (size before relaxing)
                0x0000000040100b48                prvInsertBlockIntoUsedList
                0x0000000040100b78                system_show_malloc
                0x0000000040100b78                pvShowMalloc
                0x0000000040100c04                prvRemoveBlockFromUsedList
                0x0000000040100c30                xPortWantedSizeAlign
                0x0000000040100c58                pvPortMalloc
                0x0000000040100d20                vPortFree
                0x0000000040100d78                pvPortCalloc
                0x0000000040100da8                pvPortZalloc
                0x0000000040100dc4                pvPortRealloc
 *fill*         0x0000000040100e53        0x1 
 .text          0x0000000040100e54      0x59d /opt/esp-open-sdk/sdk/lib/libmain.a(spi_flash.o)
                                        0x650 (size before relaxing)
                0x0000000040100e58                Cache_Read_Disable_2
                0x0000000040100e98                Cache_Read_Enable_2
                0x0000000040100ee8                spi_flash_get_unique_id
                0x0000000040101050                spi_flash_get_id
                0x00000000401010ac                spi_flash_read_status
                0x00000000401010e0                spi_flash_write_status
                0x0000000040101160                spi_flash_erase_sector
                0x0000000040101194                spi_flash_write
                0x00000000401011e8                spi_flash_read
                0x0000000040101264                spi_flash_issi_enable_QIO_mode
 *fill*         0x00000000401013f1        0x3 
 .text          0x00000000401013f4      0x2ee /opt/esp-open-sdk/sdk/lib/libmain.a(user_interface.o)
                                        0x34a (size before relaxing)
                0x0000000040101410                os_printf_plus
                0x000000004010153c                system_restart_core
                0x0000000040101574                system_deep_sleep_local_2
                0x00000000401015e8                system_get_time
                0x0000000040101600                system_os_post
                0x0000000040101634                system_rtc_mem_write
                0x000000004010168c                system_rtc_mem_read
 *fill*         0x00000000401016e2        0x2 
 .literal       0x00000000401016e4        0x4 /opt/sming/Sming/compiler/lib//libmicrogcc.a(_cmpdf2.o)
                                         0x18 (size before relaxing)
 .literal       0x00000000401016e8        0x4 /opt/sming/Sming/compiler/lib//libmicrogcc.a(_fixsfsi.o)
 .text          0x00000000401016ec      0x169 /opt/sming/Sming/compiler/lib//libmicrogcc.a(_cmpdf2.o)
                0x00000000401016ec                __eqdf2
                0x00000000401016ec                __nedf2
                0x000000004010171c                __gtdf2
                0x0000000040101740                __ledf2
                0x00000000401017a4                __gedf2
                0x00000000401017c8                __ltdf2
                0x000000004010182c                __unorddf2
 *fill*         0x0000000040101855        0x3 
 .text          0x0000000040101858       0x53 /opt/esp-open-sdk/sdk/lib/libphy.a(phy.o)
                                         0x5f (size before relaxing)
                0x0000000040101860                register_phy_ops
                0x0000000040101880                register_get_phy_addr
                0x0000000040101888                phy_change_channel
                0x00000000401018a0                phy_get_mactime
 *fill*         0x00000000401018ab        0x1 
 .text          0x00000000401018ac      0x266 /opt/esp-open-sdk/sdk/lib/libphy.a(phy_chip_v6_ana.o)
                                        0x276 (size before relaxing)
                0x00000000401018d0                phy_adc_read_fast
 *fill*         0x0000000040101b12        0x2 
 .text          0x0000000040101b14       0xb2 /opt/esp-open-sdk/sdk/lib/libphy.a(phy_chip_v6_cal.o)
                                         0xba (size before relaxing)
                0x0000000040101b14                unsign_to_sign
                0x0000000040101b50                phy_get_bb_freqoffset
                0x0000000040101bb8                phy_get_bb_evm
 *fill*         0x0000000040101bc6        0x2 
 .text          0x0000000040101bc8       0xef /opt/esp-open-sdk/sdk/lib/libphy.a(phy_sleep.o)
                                        0x103 (size before relaxing)
                0x0000000040101bd4                pm_rtc_clock_cali
                0x0000000040101c8c                clockgate_watchdog
 *fill*         0x0000000040101cb7        0x1 
 .text          0x0000000040101cb8     0x1602 /opt/esp-open-sdk/sdk/lib/libpp.a(lmac.o)
                                       0x1962 (size before relaxing)
                0x0000000040101cbc                lmacIsActive
                0x0000000040101cd0                lmacIsIdle
                0x0000000040102150                lmacSetAcParam
                0x00000000401021a4                lmacProcessTXStartData
                0x0000000040102324                lmacProcessTxSuccess
                0x0000000040102468                GetAccess
                0x0000000040102474                lmacDiscardAgedMSDU
                0x0000000040102488                lmacRecycleMPDU
                0x0000000040102a4c                lmacProcessTxTimeout
                0x0000000040102ab4                lmacProcessAllTxTimeout
                0x0000000040102ac8                lmacProcessCollisions
                0x0000000040102b28                lmacProcessCollision
                0x0000000040102bac                lmacMSDUAged
                0x0000000040102f3c                lmacProcessCtsTimeout
                0x0000000040102f74                lmacProcessAckTimeout
                0x0000000040102fcc                lmacProcessRtsStart
                0x0000000040102fd8                lmacProcessTxRtsError
                0x0000000040103078                lmacProcessTxError
                0x0000000040103108                lmacTxFrame
                0x00000000401032a4                lmacRxDone
 *fill*         0x00000000401032ba        0x2 
 .text          0x00000000401032bc      0x8e1 /opt/esp-open-sdk/sdk/lib/libpp.a(pp.o)
                                        0x9fd (size before relaxing)
                0x00000000401032f0                pp_soft_wdt_feed_local
                0x0000000040103384                ppProcessTxQ
                0x00000000401033f8                ppFetchTxQFirstAvail
                0x0000000040103438                ppDequeueTxQ
                0x0000000040103460                ppRollBackTxQ
                0x0000000040103484                ppRecordBarRRC
                0x0000000040103494                ppTxqUpdateBitmap
                0x00000000401034bc                ppEnqueueTxDone
                0x00000000401034f0                ppEnqueueRxq
                0x00000000401039d8                ppDiscardMPDU
                0x00000000401039fc                pp_post
                0x0000000040103a88                pp_post2
                0x0000000040103ab0                ppCalTxop
                0x0000000040103b30                ppCalFrameTimes
 *fill*         0x0000000040103b9d        0x3 
 .text          0x0000000040103ba0       0xf5 /opt/esp-open-sdk/sdk/lib/libpp.a(rate_control.o)
                                        0x109 (size before relaxing)
                0x0000000040103bc0                RC_GetAckRate
                0x0000000040103bcc                RC_GetRtsRate
                0x0000000040103bdc                RC_GetAckTime
                0x0000000040103bf0                RC_GetCtsTime
                0x0000000040103c28                RC_GetBlockAckTime
 *fill*         0x0000000040103c95        0x3 
 .text          0x0000000040103c98      0x9a1 /opt/esp-open-sdk/sdk/lib/libpp.a(trc.o)
                                        0xa05 (size before relaxing)
                0x0000000040103e6c                rcUpdateTxDone
                0x0000000040103f00                rcUpdateRxDone
                0x0000000040103f5c                rcUpdateDataRxDone
                0x0000000040103f78                rcGetSched
                0x000000004010405c                rcGetRate
                0x000000004010456c                rcReachRetryLimit
                0x0000000040104584                trc_NeedRTS
 *fill*         0x0000000040104639        0x3 
 .text          0x000000004010463c     0x105b /opt/esp-open-sdk/sdk/lib/libpp.a(wdev.o)
                                       0x1347 (size before relaxing)
                0x00000000401049e0                wDev_MacTim1SetFunc
                0x0000000040104a00                wDev_MacTim1Arm
                0x0000000040104a94                wDev_ProcessFiq
                0x0000000040104dd8                wDev_EnableTransmit
                0x0000000040104e10                wDev_DisableTransmit
                0x0000000040104e30                Tx_Copy2Queue
                0x0000000040104e78                wDev_ProcessCollision
                0x0000000040104e9c                wDev_GetTxqCollisions
                0x0000000040104eac                wDev_ClearTxqCollisions
                0x0000000040104ec8                wDev_SetWaitingQueue
                0x0000000040104f10                wDev_ClearWaitingQueue
                0x0000000040104f34                wDev_SetFrameAckType
                0x0000000040104f94                wDev_AppendRxBlocks
                0x00000000401050d8                wDev_AppendRxAmpduLensBlocks
                0x00000000401051ac                wDev_GetBAInfo
                0x00000000401051e0                wDevDisableRx
 *fill*         0x0000000040105697        0x1 
 .text          0x0000000040105698       0x4c /opt/esp-open-sdk/sdk/lib/libpp.a(esf_buf.o)
                                         0x5c (size before relaxing)
                0x000000004010569c                esf_rx_buf_alloc
 .text          0x00000000401056e4       0x23 /opt/esp-open-sdk/sdk/lib/libnet80211.a(ieee80211_output.o)
                                         0x27 (size before relaxing)
 *fill*         0x0000000040105707        0x1 
 .text          0x0000000040105708        0xb /opt/esp-open-sdk/sdk/lib/libnet80211.a(wl_chm.o)
                0x000000004010570c                chm_get_current_channel
 *fill*         0x0000000040105713        0x1 
 .text          0x0000000040105714       0x43 /opt/esp-open-sdk/sdk/lib/liblwip.a(etharp.o)
                                         0x47 (size before relaxing)
 *fill*         0x0000000040105757        0x1 
 .text          0x0000000040105758      0x201 /opt/esp-open-sdk/sdk/lib/liblwip.a(tcp.o)
                                        0x229 (size before relaxing)
 *fill*         0x0000000040105959        0x3 
 .text          0x000000004010595c      0x15d /opt/esp-open-sdk/sdk/lib/liblwip.a(tcp_out.o)
                                        0x161 (size before relaxing)
 *fill*         0x0000000040105ab9        0x3 
 .text          0x0000000040105abc       0xb4 /opt/esp-open-sdk/sdk/lib/liblwip.a(timers.o)
                                         0xc0 (size before relaxing)
 .text          0x0000000040105b70       0x40 /opt/sming/Sming/compiler/lib//libmicrogcc.a(_fixsfsi.o)
                0x0000000040105b70                __fixsfsi
 *fill*         0x0000000040105bb0        0x0 
 *fill*         0x0000000040105bb0        0x0 
 *fill*         0x0000000040105bb0        0x0 
 *fill*         0x0000000040105bb0        0x0 
 *fill*         0x0000000040105bb0        0x0 
 *fill*         0x0000000040105bb0        0x0 
 .text          0x0000000040105bb0       0x49 /opt/sming/Sming/compiler/lib//libmicrogcc.a(_modsi3.o)
                0x0000000040105bb0                __modsi3
 *fill*         0x0000000040105bf9        0x3 
 .text          0x0000000040105bfc        0x5 /opt/esp-open-sdk/xtensa-lx106-elf/xtensa-lx106-elf/sysroot/usr/lib/libhal.a(int_asm--set_intclear.o)
                0x0000000040105bfc                xthal_set_intclear
 *fill*         0x0000000040105c01        0x0 
 *fill*         0x0000000040105c01        0x0 
 *fill*         0x0000000040105c01        0x0 
 *fill*         0x0000000040105c01        0x0 
 *fill*         0x0000000040105c01        0x0 
 *fill*         0x0000000040105c01        0x0 
 *fill*         0x0000000040105c01        0x0 
 *fill*         0x0000000040105c01        0x0 
 *fill*         0x0000000040105c01        0x0 
 *fill*         0x0000000040105c01        0x3 
 .text          0x0000000040105c04       0x25 /opt/esp-open-sdk/sdk/lib/libnet80211.a(ieee80211_hostap.o)
 *fill*         0x0000000040105c29        0x0 
 *fill*         0x0000000040105c29        0x0 
 *fill*         0x0000000040105c29        0x0 
 *fill*         0x0000000040105c29        0x0 
 *fill*         0x0000000040105c29        0x0 
 *fill*         0x0000000040105c29        0x3 
 .text          0x0000000040105c2c       0x11 /opt/esp-open-sdk/sdk/lib/libwpa.a(wpa_auth.o)
 *fill*         0x0000000040105c3d        0x3 
 .text          0x0000000040105c40       0x18 /opt/sming/Sming/compiler/lib//libmicrogcc.a(_ashrdi3.o)
                0x0000000040105c40                __ashrdi3
 *(.iram.literal .iram.text.literal .iram.text)
 .iram.text     0x0000000040105c58      0x35f /opt/sming/Sming/compiler/lib//libsming.a(Timer.o)
                                        0x39b (size before relaxing)
                0x0000000040105c58                _ZN5Timer4stopEv
                0x0000000040105c98                _ZN5Timer5startEb
                0x0000000040105d1c                _ZN5Timer10processingEPv
                0x0000000040105d70                _ZN5Timer7restartEv
                0x0000000040105d94                _ZN5Timer13setIntervalUsEy
                0x0000000040105e04                _ZN5Timer13setIntervalMsEj
                0x0000000040105e30                _ZN5Timer11setCallbackEPFvvE
                0x0000000040105e80                _ZN5Timer12initializeMsEjPFvvE
                0x0000000040105ea8                _ZN5Timer12initializeUsEjPFvvE
                0x0000000040105ed8                _ZN5Timer11setCallbackE8DelegateIFvvEE
                0x0000000040105f18                _ZN5Timer12initializeMsEj8DelegateIFvvEE
                0x0000000040105f68                _ZN5Timer12initializeUsEj8DelegateIFvvEE
 *(.fini.literal)
 *(.fini)
 *(.gnu.version)
                0x0000000040105fb7                _text_end = ABSOLUTE (.)
                0x0000000040105fb7                _etext = .

.lit4           0x0000000040105fb8        0x0
                0x0000000040105fb8                _lit4_start = ABSOLUTE (.)
 *(*.lit4)
 *(.lit4.*)
 *(.gnu.linkonce.lit4.*)
                0x0000000040105fb8                _lit4_end = ABSOLUTE (.)
                0x00000000400047f0                PROVIDE (Cache_Read_Disable, 0x400047f0)
                0x0000000040004678                PROVIDE (Cache_Read_Enable, 0x40004678)
                [!provide]                        PROVIDE (FilePacketSendReqMsgProc, 0x400035a0)
                [!provide]                        PROVIDE (FlashDwnLdParamCfgMsgProc, 0x4000368c)
                [!provide]                        PROVIDE (FlashDwnLdStartMsgProc, 0x40003538)
                [!provide]                        PROVIDE (FlashDwnLdStopReqMsgProc, 0x40003658)
                [!provide]                        PROVIDE (GetUartDevice, 0x40003f4c)
                [!provide]                        PROVIDE (MD5Final, 0x40009900)
                [!provide]                        PROVIDE (MD5Init, 0x40009818)
                [!provide]                        PROVIDE (MD5Update, 0x40009834)
                [!provide]                        PROVIDE (MemDwnLdStartMsgProc, 0x400036c4)
                [!provide]                        PROVIDE (MemDwnLdStopReqMsgProc, 0x4000377c)
                [!provide]                        PROVIDE (MemPacketSendReqMsgProc, 0x400036f0)
                [!provide]                        PROVIDE (RcvMsg, 0x40003eac)
                [!provide]                        PROVIDE (SHA1Final, 0x4000b648)
                [!provide]                        PROVIDE (SHA1Init, 0x4000b584)
                [!provide]                        PROVIDE (SHA1Transform, 0x4000a364)
                [!provide]                        PROVIDE (SHA1Update, 0x4000b5a8)
                0x00000000400043c8                PROVIDE (SPI_read_status, 0x400043c8)
                0x0000000040004400                PROVIDE (SPI_write_status, 0x40004400)
                0x000000004000443c                PROVIDE (SPI_write_enable, 0x4000443c)
                0x000000004000448c                PROVIDE (Wait_SPI_Idle, 0x4000448c)
                [!provide]                        PROVIDE (SPIEraseArea, 0x40004b44)
                [!provide]                        PROVIDE (SPIEraseBlock, 0x400049b4)
                [!provide]                        PROVIDE (SPIEraseChip, 0x40004984)
                0x0000000040004a00                PROVIDE (SPIEraseSector, 0x40004a00)
                [!provide]                        PROVIDE (SPILock, 0x400048a8)
                [!provide]                        PROVIDE (SPIParamCfg, 0x40004c2c)
                0x0000000040004b1c                PROVIDE (SPIRead, 0x40004b1c)
                [!provide]                        PROVIDE (SPIReadModeCnfig, 0x400048ec)
                [!provide]                        PROVIDE (SPIUnlock, 0x40004878)
                0x0000000040004a4c                PROVIDE (SPIWrite, 0x40004a4c)
                [!provide]                        PROVIDE (SelectSpiFunction, 0x40003f58)
                [!provide]                        PROVIDE (SendMsg, 0x40003cf4)
                [!provide]                        PROVIDE (UartConnCheck, 0x40003230)
                [!provide]                        PROVIDE (UartConnectProc, 0x400037a0)
                [!provide]                        PROVIDE (UartDwnLdProc, 0x40003368)
                [!provide]                        PROVIDE (UartGetCmdLn, 0x40003ef4)
                [!provide]                        PROVIDE (UartRegReadProc, 0x4000381c)
                [!provide]                        PROVIDE (UartRegWriteProc, 0x400037ac)
                [!provide]                        PROVIDE (UartRxString, 0x40003c30)
                0x0000000040003a14                PROVIDE (Uart_Init, 0x40003a14)
                [!provide]                        PROVIDE (_DebugExceptionVector, 0x40000010)
                [!provide]                        PROVIDE (_DoubleExceptionVector, 0x40000070)
                [!provide]                        PROVIDE (_KernelExceptionVector, 0x40000030)
                [!provide]                        PROVIDE (_NMIExceptionVector, 0x40000020)
                [!provide]                        PROVIDE (_ResetHandler, 0x400000a4)
                [!provide]                        PROVIDE (_ResetVector, 0x40000080)
                [!provide]                        PROVIDE (_UserExceptionVector, 0x40000050)
                0x000000004000c538                PROVIDE (__adddf3, 0x4000c538)
                0x000000004000c180                PROVIDE (__addsf3, 0x4000c180)
                0x000000004000cb94                PROVIDE (__divdf3, 0x4000cb94)
                0x000000004000ce60                PROVIDE (__divdi3, 0x4000ce60)
                0x000000004000dc88                PROVIDE (__divsi3, 0x4000dc88)
                0x000000004000cdfc                PROVIDE (__extendsfdf2, 0x4000cdfc)
                0x000000004000ccb8                PROVIDE (__fixdfsi, 0x4000ccb8)
                0x000000004000cd00                PROVIDE (__fixunsdfsi, 0x4000cd00)
                0x000000004000c4c4                PROVIDE (__fixunssfsi, 0x4000c4c4)
                0x000000004000e2f0                PROVIDE (__floatsidf, 0x4000e2f0)
                0x000000004000e2ac                PROVIDE (__floatsisf, 0x4000e2ac)
                0x000000004000e2e8                PROVIDE (__floatunsidf, 0x4000e2e8)
                0x000000004000e2a4                PROVIDE (__floatunsisf, 0x4000e2a4)
                0x000000004000c8f0                PROVIDE (__muldf3, 0x4000c8f0)
                0x0000000040000650                PROVIDE (__muldi3, 0x40000650)
                0x000000004000c3dc                PROVIDE (__mulsf3, 0x4000c3dc)
                0x000000004000c688                PROVIDE (__subdf3, 0x4000c688)
                0x000000004000c268                PROVIDE (__subsf3, 0x4000c268)
                0x000000004000cd5c                PROVIDE (__truncdfsf2, 0x4000cd5c)
                0x000000004000d310                PROVIDE (__udivdi3, 0x4000d310)
                0x000000004000e21c                PROVIDE (__udivsi3, 0x4000e21c)
                0x000000004000d770                PROVIDE (__umoddi3, 0x4000d770)
                0x000000004000e268                PROVIDE (__umodsi3, 0x4000e268)
                [!provide]                        PROVIDE (__umulsidi3, 0x4000dcf0)
                [!provide]                        PROVIDE (_rom_store, 0x4000e388)
                [!provide]                        PROVIDE (_rom_store_table, 0x4000e328)
                [!provide]                        PROVIDE (_start, 0x4000042c)
                [!provide]                        PROVIDE (_xtos_alloca_handler, 0x4000dbe0)
                [!provide]                        PROVIDE (_xtos_c_wrapper_handler, 0x40000598)
                [!provide]                        PROVIDE (_xtos_cause3_handler, 0x40000590)
                [!provide]                        PROVIDE (_xtos_ints_off, 0x4000bda4)
                [!provide]                        PROVIDE (_xtos_ints_on, 0x4000bd84)
                [!provide]                        PROVIDE (_xtos_l1int_handler, 0x4000048c)
                [!provide]                        PROVIDE (_xtos_p_none, 0x4000dbf8)
                [!provide]                        PROVIDE (_xtos_restore_intlevel, 0x4000056c)
                [!provide]                        PROVIDE (_xtos_return_from_exc, 0x4000dc54)
                0x0000000040000454                PROVIDE (_xtos_set_exception_handler, 0x40000454)
                [!provide]                        PROVIDE (_xtos_set_interrupt_handler, 0x4000bd70)
                [!provide]                        PROVIDE (_xtos_set_interrupt_handler_arg, 0x4000bd28)
                [!provide]                        PROVIDE (_xtos_set_intlevel, 0x4000dbfc)
                [!provide]                        PROVIDE (_xtos_set_min_intlevel, 0x4000dc18)
                [!provide]                        PROVIDE (_xtos_set_vpri, 0x40000574)
                [!provide]                        PROVIDE (_xtos_syscall_handler, 0x4000dbe4)
                [!provide]                        PROVIDE (_xtos_unhandled_exception, 0x4000dc44)
                [!provide]                        PROVIDE (_xtos_unhandled_interrupt, 0x4000dc3c)
                [!provide]                        PROVIDE (aes_decrypt, 0x400092d4)
                [!provide]                        PROVIDE (aes_decrypt_deinit, 0x400092e4)
                [!provide]                        PROVIDE (aes_decrypt_init, 0x40008ea4)
                0x0000000040009410                PROVIDE (aes_unwrap, 0x40009410)
                [!provide]                        PROVIDE (base64_decode, 0x40009648)
                [!provide]                        PROVIDE (base64_encode, 0x400094fc)
                [!provide]                        PROVIDE (bzero, 0x4000de84)
                [!provide]                        PROVIDE (cmd_parse, 0x40000814)
                [!provide]                        PROVIDE (conv_str_decimal, 0x40000b24)
                [!provide]                        PROVIDE (conv_str_hex, 0x40000cb8)
                [!provide]                        PROVIDE (convert_para_str, 0x40000a60)
                [!provide]                        PROVIDE (dtm_get_intr_mask, 0x400026d0)
                [!provide]                        PROVIDE (dtm_params_init, 0x4000269c)
                [!provide]                        PROVIDE (dtm_set_intr_mask, 0x400026c8)
                [!provide]                        PROVIDE (dtm_set_params, 0x400026dc)
                [!provide]                        PROVIDE (eprintf, 0x40001d14)
                [!provide]                        PROVIDE (eprintf_init_buf, 0x40001cb8)
                [!provide]                        PROVIDE (eprintf_to_host, 0x40001d48)
                [!provide]                        PROVIDE (est_get_printf_buf_remain_len, 0x40002494)
                [!provide]                        PROVIDE (est_reset_printf_buf_len, 0x4000249c)
                0x0000000040002ae8                PROVIDE (ets_bzero, 0x40002ae8)
                [!provide]                        PROVIDE (ets_char2xdigit, 0x40002b74)
                0x0000000040002ecc                PROVIDE (ets_delay_us, 0x40002ecc)
                [!provide]                        PROVIDE (ets_enter_sleep, 0x400027b8)
                [!provide]                        PROVIDE (ets_external_printf, 0x40002578)
                0x0000000040002f0c                PROVIDE (ets_get_cpu_frequency, 0x40002f0c)
                [!provide]                        PROVIDE (ets_getc, 0x40002bcc)
                [!provide]                        PROVIDE (ets_install_external_printf, 0x40002450)
                0x000000004000242c                PROVIDE (ets_install_putc1, 0x4000242c)
                [!provide]                        PROVIDE (ets_install_putc2, 0x4000248c)
                [!provide]                        PROVIDE (ets_install_uart_printf, 0x40002438)
                0x0000000040000f74                PROVIDE (ets_intr_lock, 0x40000f74)
                0x0000000040000f80                PROVIDE (ets_intr_unlock, 0x40000f80)
                0x0000000040000f88                PROVIDE (ets_isr_attach, 0x40000f88)
                0x0000000040000f98                PROVIDE (ets_isr_mask, 0x40000f98)
                0x0000000040000fa8                PROVIDE (ets_isr_unmask, 0x40000fa8)
                0x00000000400018d4                PROVIDE (ets_memcmp, 0x400018d4)
                0x00000000400018b4                PROVIDE (ets_memcpy, 0x400018b4)
                [!provide]                        PROVIDE (ets_memmove, 0x400018c4)
                0x00000000400018a4                PROVIDE (ets_memset, 0x400018a4)
                0x0000000040000e24                PROVIDE (ets_post, 0x40000e24)
                0x00000000400024cc                PROVIDE (ets_printf, 0x400024cc)
                [!provide]                        PROVIDE (ets_putc, 0x40002be8)
                [!provide]                        PROVIDE (ets_rtc_int_register, 0x40002a40)
                0x0000000040000e04                PROVIDE (ets_run, 0x40000e04)
                0x0000000040000dc0                PROVIDE (ets_set_idle_cb, 0x40000dc0)
                [!provide]                        PROVIDE (ets_set_user_start, 0x40000fbc)
                [!provide]                        PROVIDE (ets_str2macaddr, 0x40002af8)
                [!provide]                        PROVIDE (ets_strcmp, 0x40002aa8)
                0x0000000040002a88                PROVIDE (ets_strcpy, 0x40002a88)
                0x0000000040002ac8                PROVIDE (ets_strlen, 0x40002ac8)
                0x0000000040002ab8                PROVIDE (ets_strncmp, 0x40002ab8)
                0x0000000040002a98                PROVIDE (ets_strncpy, 0x40002a98)
                [!provide]                        PROVIDE (ets_strstr, 0x40002ad8)
                0x0000000040000dd0                PROVIDE (ets_task, 0x40000dd0)
                [!provide]                        PROVIDE (ets_timer_arm, 0x40002cc4)
                [!provide]                        PROVIDE (ets_timer_disarm, 0x40002d40)
                [!provide]                        PROVIDE (ets_timer_done, 0x40002d80)
                [!provide]                        PROVIDE (ets_timer_handler_isr, 0x40002da8)
                [!provide]                        PROVIDE (ets_timer_init, 0x40002e68)
                [!provide]                        PROVIDE (ets_timer_setfn, 0x40002c48)
                0x0000000040002544                PROVIDE (ets_uart_printf, 0x40002544)
                0x0000000040002f04                PROVIDE (ets_update_cpu_frequency, 0x40002f04)
                0x0000000040001f00                PROVIDE (ets_vprintf, 0x40001f00)
                0x00000000400030f0                PROVIDE (ets_wdt_disable, 0x400030f0)
                0x0000000040002fa0                PROVIDE (ets_wdt_enable, 0x40002fa0)
                [!provide]                        PROVIDE (ets_wdt_get_mode, 0x40002f34)
                [!provide]                        PROVIDE (ets_wdt_init, 0x40003170)
                [!provide]                        PROVIDE (ets_wdt_restore, 0x40003158)
                0x0000000040001da0                PROVIDE (ets_write_char, 0x40001da0)
                [!provide]                        PROVIDE (get_first_seg, 0x4000091c)
                [!provide]                        PROVIDE (gpio_init, 0x40004c50)
                [!provide]                        PROVIDE (gpio_input_get, 0x40004cf0)
                [!provide]                        PROVIDE (gpio_intr_ack, 0x40004dcc)
                [!provide]                        PROVIDE (gpio_intr_handler_register, 0x40004e28)
                [!provide]                        PROVIDE (gpio_intr_pending, 0x40004d88)
                [!provide]                        PROVIDE (gpio_intr_test, 0x40004efc)
                0x0000000040004cd0                PROVIDE (gpio_output_set, 0x40004cd0)
                0x0000000040004d90                PROVIDE (gpio_pin_intr_state_set, 0x40004d90)
                [!provide]                        PROVIDE (gpio_pin_wakeup_disable, 0x40004ed4)
                [!provide]                        PROVIDE (gpio_pin_wakeup_enable, 0x40004e90)
                [!provide]                        PROVIDE (gpio_register_get, 0x40004d5c)
                [!provide]                        PROVIDE (gpio_register_set, 0x40004d04)
                0x000000004000a2cc                PROVIDE (hmac_md5, 0x4000a2cc)
                [!provide]                        PROVIDE (hmac_md5_vector, 0x4000a160)
                0x000000004000ba28                PROVIDE (hmac_sha1, 0x4000ba28)
                0x000000004000b8b4                PROVIDE (hmac_sha1_vector, 0x4000b8b4)
                0x0000000040004f40                PROVIDE (lldesc_build_chain, 0x40004f40)
                0x0000000040005050                PROVIDE (lldesc_num2link, 0x40005050)
                [!provide]                        PROVIDE (lldesc_set_owner, 0x4000507c)
                [!provide]                        PROVIDE (main, 0x40000fec)
                [!provide]                        PROVIDE (md5_vector, 0x400097ac)
                [!provide]                        PROVIDE (mem_calloc, 0x40001c2c)
                [!provide]                        PROVIDE (mem_free, 0x400019e0)
                [!provide]                        PROVIDE (mem_init, 0x40001998)
                [!provide]                        PROVIDE (mem_malloc, 0x40001b40)
                [!provide]                        PROVIDE (mem_realloc, 0x40001c6c)
                [!provide]                        PROVIDE (mem_trim, 0x40001a14)
                [!provide]                        PROVIDE (mem_zalloc, 0x40001c58)
                0x000000004000dea8                PROVIDE (memcmp, 0x4000dea8)
                0x000000004000df48                PROVIDE (memcpy, 0x4000df48)
                0x000000004000e04c                PROVIDE (memmove, 0x4000e04c)
                0x000000004000e190                PROVIDE (memset, 0x4000e190)
                [!provide]                        PROVIDE (multofup, 0x400031c0)
                0x000000004000b840                PROVIDE (pbkdf2_sha1, 0x4000b840)
                0x0000000040006b08                PROVIDE (phy_get_romfuncs, 0x40006b08)
                [!provide]                        PROVIDE (rand, 0x40000600)
                0x000000004000dd68                PROVIDE (rc4_skip, 0x4000dd68)
                [!provide]                        PROVIDE (recv_packet, 0x40003d08)
                [!provide]                        PROVIDE (remove_head_space, 0x40000a04)
                [!provide]                        PROVIDE (rijndaelKeySetupDec, 0x40008dd0)
                [!provide]                        PROVIDE (rijndaelKeySetupEnc, 0x40009300)
                [!provide]                        PROVIDE (rom_abs_temp, 0x400060c0)
                [!provide]                        PROVIDE (rom_ana_inf_gating_en, 0x40006b10)
                [!provide]                        PROVIDE (rom_cal_tos_v50, 0x40007a28)
                [!provide]                        PROVIDE (rom_chip_50_set_channel, 0x40006f84)
                0x00000000400060d0                PROVIDE (rom_chip_v5_disable_cca, 0x400060d0)
                0x00000000400060ec                PROVIDE (rom_chip_v5_enable_cca, 0x400060ec)
                [!provide]                        PROVIDE (rom_chip_v5_rx_init, 0x4000711c)
                [!provide]                        PROVIDE (rom_chip_v5_sense_backoff, 0x4000610c)
                [!provide]                        PROVIDE (rom_chip_v5_tx_init, 0x4000718c)
                [!provide]                        PROVIDE (rom_dc_iq_est, 0x4000615c)
                [!provide]                        PROVIDE (rom_en_pwdet, 0x400061b8)
                [!provide]                        PROVIDE (rom_get_bb_atten, 0x40006238)
                [!provide]                        PROVIDE (rom_get_corr_power, 0x40006260)
                [!provide]                        PROVIDE (rom_get_fm_sar_dout, 0x400062dc)
                [!provide]                        PROVIDE (rom_get_noisefloor, 0x40006394)
                [!provide]                        PROVIDE (rom_get_power_db, 0x400063b0)
                [!provide]                        PROVIDE (rom_i2c_readReg, 0x40007268)
                [!provide]                        PROVIDE (rom_i2c_readReg_Mask, 0x4000729c)
                [!provide]                        PROVIDE (rom_i2c_writeReg, 0x400072d8)
                [!provide]                        PROVIDE (rom_i2c_writeReg_Mask, 0x4000730c)
                [!provide]                        PROVIDE (rom_iq_est_disable, 0x40006400)
                [!provide]                        PROVIDE (rom_iq_est_enable, 0x40006430)
                [!provide]                        PROVIDE (rom_linear_to_db, 0x40006484)
                [!provide]                        PROVIDE (rom_mhz2ieee, 0x400065a4)
                [!provide]                        PROVIDE (rom_pbus_dco___SA2, 0x40007bf0)
                [!provide]                        PROVIDE (rom_pbus_debugmode, 0x4000737c)
                [!provide]                        PROVIDE (rom_pbus_enter_debugmode, 0x40007410)
                [!provide]                        PROVIDE (rom_pbus_exit_debugmode, 0x40007448)
                [!provide]                        PROVIDE (rom_pbus_force_test, 0x4000747c)
                [!provide]                        PROVIDE (rom_pbus_rd, 0x400074d8)
                [!provide]                        PROVIDE (rom_pbus_set_rxgain, 0x4000754c)
                [!provide]                        PROVIDE (rom_pbus_set_txgain, 0x40007610)
                [!provide]                        PROVIDE (rom_pbus_workmode, 0x40007648)
                [!provide]                        PROVIDE (rom_pbus_xpd_rx_off, 0x40007688)
                [!provide]                        PROVIDE (rom_pbus_xpd_rx_on, 0x400076cc)
                [!provide]                        PROVIDE (rom_pbus_xpd_tx_off, 0x400076fc)
                [!provide]                        PROVIDE (rom_pbus_xpd_tx_on, 0x40007740)
                [!provide]                        PROVIDE (rom_pbus_xpd_tx_on__low_gain, 0x400077a0)
                [!provide]                        PROVIDE (rom_phy_reset_req, 0x40007804)
                [!provide]                        PROVIDE (rom_restart_cal, 0x4000781c)
                [!provide]                        PROVIDE (rom_rfcal_pwrctrl, 0x40007eb4)
                [!provide]                        PROVIDE (rom_rfcal_rxiq, 0x4000804c)
                [!provide]                        PROVIDE (rom_rfcal_rxiq_set_reg, 0x40008264)
                [!provide]                        PROVIDE (rom_rfcal_txcap, 0x40008388)
                [!provide]                        PROVIDE (rom_rfcal_txiq, 0x40008610)
                [!provide]                        PROVIDE (rom_rfcal_txiq_cover, 0x400088b8)
                [!provide]                        PROVIDE (rom_rfcal_txiq_set_reg, 0x40008a70)
                [!provide]                        PROVIDE (rom_rfpll_reset, 0x40007868)
                [!provide]                        PROVIDE (rom_rfpll_set_freq, 0x40007968)
                [!provide]                        PROVIDE (rom_rxiq_cover_mg_mp, 0x40008b6c)
                [!provide]                        PROVIDE (rom_rxiq_get_mis, 0x40006628)
                [!provide]                        PROVIDE (rom_sar_init, 0x40006738)
                [!provide]                        PROVIDE (rom_set_ana_inf_tx_scale, 0x4000678c)
                [!provide]                        PROVIDE (rom_set_channel_freq, 0x40006c50)
                [!provide]                        PROVIDE (rom_set_loopback_gain, 0x400067c8)
                [!provide]                        PROVIDE (rom_set_noise_floor, 0x40006830)
                [!provide]                        PROVIDE (rom_set_rxclk_en, 0x40006550)
                [!provide]                        PROVIDE (rom_set_txbb_atten, 0x40008c6c)
                [!provide]                        PROVIDE (rom_set_txclk_en, 0x4000650c)
                [!provide]                        PROVIDE (rom_set_txiq_cal, 0x40008d34)
                [!provide]                        PROVIDE (rom_start_noisefloor, 0x40006874)
                [!provide]                        PROVIDE (rom_start_tx_tone, 0x400068b4)
                [!provide]                        PROVIDE (rom_stop_tx_tone, 0x4000698c)
                [!provide]                        PROVIDE (rom_tx_mac_disable, 0x40006a98)
                [!provide]                        PROVIDE (rom_tx_mac_enable, 0x40006ad4)
                [!provide]                        PROVIDE (rom_txtone_linear_pwr, 0x40006a1c)
                [!provide]                        PROVIDE (rom_write_rfpll_sdm, 0x400078dc)
                0x00000000400031b4                PROVIDE (roundup2, 0x400031b4)
                [!provide]                        PROVIDE (rtc_enter_sleep, 0x40002870)
                0x00000000400025e0                PROVIDE (rtc_get_reset_reason, 0x400025e0)
                [!provide]                        PROVIDE (rtc_intr_handler, 0x400029ec)
                [!provide]                        PROVIDE (rtc_set_sleep_mode, 0x40002668)
                [!provide]                        PROVIDE (save_rxbcn_mactime, 0x400027a4)
                [!provide]                        PROVIDE (save_tsf_us, 0x400027ac)
                [!provide]                        PROVIDE (send_packet, 0x40003c80)
                0x000000004000ba48                PROVIDE (sha1_prf, 0x4000ba48)
                [!provide]                        PROVIDE (sha1_vector, 0x4000a2ec)
                [!provide]                        PROVIDE (sip_alloc_to_host_evt, 0x40005180)
                [!provide]                        PROVIDE (sip_get_ptr, 0x400058a8)
                [!provide]                        PROVIDE (sip_get_state, 0x40005668)
                [!provide]                        PROVIDE (sip_init_attach, 0x4000567c)
                [!provide]                        PROVIDE (sip_install_rx_ctrl_cb, 0x4000544c)
                [!provide]                        PROVIDE (sip_install_rx_data_cb, 0x4000545c)
                [!provide]                        PROVIDE (sip_post, 0x400050fc)
                [!provide]                        PROVIDE (sip_post_init, 0x400056c4)
                [!provide]                        PROVIDE (sip_reclaim_from_host_cmd, 0x4000534c)
                [!provide]                        PROVIDE (sip_reclaim_tx_data_pkt, 0x400052c0)
                [!provide]                        PROVIDE (sip_send, 0x40005808)
                [!provide]                        PROVIDE (sip_to_host_chain_append, 0x40005864)
                [!provide]                        PROVIDE (sip_to_host_evt_send_done, 0x40005234)
                [!provide]                        PROVIDE (slc_add_credits, 0x400060ac)
                [!provide]                        PROVIDE (slc_enable, 0x40005d90)
                [!provide]                        PROVIDE (slc_from_host_chain_fetch, 0x40005f24)
                [!provide]                        PROVIDE (slc_from_host_chain_recycle, 0x40005e94)
                [!provide]                        PROVIDE (slc_init_attach, 0x40005c50)
                [!provide]                        PROVIDE (slc_init_credit, 0x4000608c)
                [!provide]                        PROVIDE (slc_pause_from_host, 0x40006014)
                [!provide]                        PROVIDE (slc_reattach, 0x40005c1c)
                [!provide]                        PROVIDE (slc_resume_from_host, 0x4000603c)
                [!provide]                        PROVIDE (slc_select_tohost_gpio, 0x40005dc0)
                [!provide]                        PROVIDE (slc_select_tohost_gpio_mode, 0x40005db8)
                [!provide]                        PROVIDE (slc_send_to_host_chain, 0x40005de4)
                [!provide]                        PROVIDE (slc_set_host_io_max_window, 0x40006068)
                [!provide]                        PROVIDE (slc_to_host_chain_recycle, 0x40005f10)
                [!provide]                        PROVIDE (software_reset, 0x4000264c)
                [!provide]                        PROVIDE (spi_flash_attach, 0x40004644)
                [!provide]                        PROVIDE (srand, 0x400005f0)
                0x000000004000bdc8                PROVIDE (strcmp, 0x4000bdc8)
                0x000000004000bec8                PROVIDE (strcpy, 0x4000bec8)
                0x000000004000bf4c                PROVIDE (strlen, 0x4000bf4c)
                0x000000004000bfa8                PROVIDE (strncmp, 0x4000bfa8)
                0x000000004000c0a0                PROVIDE (strncpy, 0x4000c0a0)
                0x000000004000e1e0                PROVIDE (strstr, 0x4000e1e0)
                [!provide]                        PROVIDE (timer_insert, 0x40002c64)
                [!provide]                        PROVIDE (uartAttach, 0x4000383c)
                [!provide]                        PROVIDE (uart_baudrate_detect, 0x40003924)
                0x00000000400038a4                PROVIDE (uart_buff_switch, 0x400038a4)
                0x00000000400039d8                PROVIDE (uart_div_modify, 0x400039d8)
                [!provide]                        PROVIDE (uart_rx_intr_handler, 0x40003bbc)
                [!provide]                        PROVIDE (uart_rx_one_char, 0x40003b8c)
                [!provide]                        PROVIDE (uart_rx_one_char_block, 0x40003b64)
                [!provide]                        PROVIDE (uart_rx_readbuff, 0x40003ec8)
                0x0000000040003b30                PROVIDE (uart_tx_one_char, 0x40003b30)
                [!provide]                        PROVIDE (wepkey_128, 0x4000bc40)
                [!provide]                        PROVIDE (wepkey_64, 0x4000bb3c)
                [!provide]                        PROVIDE (xthal_bcopy, 0x40000688)
                [!provide]                        PROVIDE (xthal_copy123, 0x4000074c)
                [!provide]                        PROVIDE (xthal_get_ccompare, 0x4000dd4c)
                [!provide]                        PROVIDE (xthal_get_ccount, 0x4000dd38)
                [!provide]                        PROVIDE (xthal_get_interrupt, 0x4000dd58)
                [!provide]                        PROVIDE (xthal_get_intread, 0x4000dd58)
                [!provide]                        PROVIDE (xthal_memcpy, 0x400006c4)
                [!provide]                        PROVIDE (xthal_set_ccompare, 0x4000dd40)
                [!provide]                        PROVIDE (xthal_set_intclear, 0x4000dd60)
                [!provide]                        PROVIDE (xthal_spill_registers_into_stack_nw, 0x4000e320)
                [!provide]                        PROVIDE (xthal_window_spill, 0x4000e324)
                [!provide]                        PROVIDE (xthal_window_spill_nw, 0x4000e320)
                0x000000003fffccf0                PROVIDE (Te0, 0x3fffccf0)
                [!provide]                        PROVIDE (Td0, 0x3fffd100)
                [!provide]                        PROVIDE (Td4s, 0x3fffd500)
                0x000000003fffd0f0                PROVIDE (rcons, 0x3fffd0f0)
                [!provide]                        PROVIDE (UartDev, 0x3fffde10)
                0x000000003fffc714                PROVIDE (flashchip, 0x3fffc714)
OUTPUT(out/build/app.out elf32-xtensa-le)

.xtensa.info    0x0000000000000000       0x38
 .xtensa.info   0x0000000000000000       0x38 /opt/esp-open-sdk/sdk/lib/libmain.a(debug-vector.o)
 .xtensa.info   0x0000000000000038        0x0 /opt/esp-open-sdk/sdk/lib/libmain.a(double-vector.o)
 .xtensa.info   0x0000000000000038        0x0 /opt/esp-open-sdk/sdk/lib/libmain.a(kernel-vector.o)
 .xtensa.info   0x0000000000000038        0x0 /opt/esp-open-sdk/sdk/lib/libmain.a(nmi-vector.o)
 .xtensa.info   0x0000000000000038        0x0 /opt/esp-open-sdk/sdk/lib/libmain.a(user-vector.o)
 .xtensa.info   0x0000000000000038        0x0 /opt/esp-open-sdk/sdk/lib/libmain.a(vector.o)
 .xtensa.info   0x0000000000000038        0x0 /opt/esp-open-sdk/sdk/lib/libmain.a(app_main.o)
 .xtensa.info   0x0000000000000038        0x0 /opt/esp-open-sdk/sdk/lib/libmain.a(ets_timer.o)
 .xtensa.info   0x0000000000000038        0x0 /opt/esp-open-sdk/sdk/lib/libmain.a(mem_manager.o)
 .xtensa.info   0x0000000000000038        0x0 /opt/esp-open-sdk/sdk/lib/libmain.a(spi_flash.o)
 .xtensa.info   0x0000000000000038        0x0 /opt/esp-open-sdk/sdk/lib/libmain.a(user_interface.o)
 .xtensa.info   0x0000000000000038        0x0 /opt/esp-open-sdk/sdk/lib/libmain.a(eagle_lib.o)
 .xtensa.info   0x0000000000000038        0x0 /opt/esp-open-sdk/sdk/lib/libmain.a(eagle_lwip_if.o)
 .xtensa.info   0x0000000000000038        0x0 /opt/sming/Sming/compiler/lib//libsming.a(user_main.o)
 .xtensa.info   0x0000000000000038        0x0 /opt/sming/Sming/compiler/lib//libsming.a(System.o)
 .xtensa.info   0x0000000000000038        0x0 /opt/sming/Sming/compiler/lib//libsming.a(esp_cplusplus.o)
 .xtensa.info   0x0000000000000038        0x0 /opt/sming/Sming/compiler/lib//libsming.a(m_printf.o)
 .xtensa.info   0x0000000000000038        0x0 /opt/sming/Sming/compiler/lib//libsming.a(stringconversion.o)
 .xtensa.info   0x0000000000000038        0x0 /opt/sming/Sming/compiler/lib//libsming.a(IPAddress.o)
 .xtensa.info   0x0000000000000038        0x0 /opt/sming/Sming/compiler/lib//libsming.a(Print.o)
 .xtensa.info   0x0000000000000038        0x0 /opt/sming/Sming/compiler/lib//libsming.a(WString.o)
 .xtensa.info   0x0000000000000038        0x0 /opt/sming/Sming/compiler/lib//libsming.a(Interrupts.o)
 .xtensa.info   0x0000000000000038        0x0 /opt/sming/Sming/compiler/lib//libsming.a(Digital.o)
 .xtensa.info   0x0000000000000038        0x0 out/build/app_app.a(application.o)
 .xtensa.info   0x0000000000000038        0x0 /opt/sming/Sming/compiler/lib//libmicroc.a(isspace.o)
 .xtensa.info   0x0000000000000038        0x0 /opt/sming/Sming/compiler/lib//libmicroc.a(tolower.o)
 .xtensa.info   0x0000000000000038        0x0 /opt/sming/Sming/compiler/lib//libmicroc.a(toupper.o)
 .xtensa.info   0x0000000000000038        0x0 /opt/sming/Sming/compiler/lib//libmicroc.a(atof.o)
 .xtensa.info   0x0000000000000038        0x0 /opt/sming/Sming/compiler/lib//libmicroc.a(atoi.o)
 .xtensa.info   0x0000000000000038        0x0 /opt/sming/Sming/compiler/lib//libmicroc.a(strtod.o)
 .xtensa.info   0x0000000000000038        0x0 /opt/sming/Sming/compiler/lib//libmicroc.a(__fpclassify.o)
 .xtensa.info   0x0000000000000038        0x0 /opt/sming/Sming/compiler/lib//libmicroc.a(strchr.o)
 .xtensa.info   0x0000000000000038        0x0 /opt/sming/Sming/compiler/lib//libmicroc.a(strrchr.o)
 .xtensa.info   0x0000000000000038        0x0 /opt/sming/Sming/compiler/lib//libmicroc.a(strchrnul.o)
 .xtensa.info   0x0000000000000038        0x0 /opt/sming/Sming/compiler/lib//libmicroc.a(malloc.o)
 .xtensa.info   0x0000000000000038        0x0 /opt/sming/Sming/compiler/lib//libmicroc.a(abort.o)
 .xtensa.info   0x0000000000000038        0x0 /opt/sming/Sming/compiler/lib//libmicroc.a(floatscan.o)
 .xtensa.info   0x0000000000000038        0x0 /opt/sming/Sming/compiler/lib//libmicroc.a(shgetc.o)
 .xtensa.info   0x0000000000000038        0x0 /opt/sming/Sming/compiler/lib//libmicroc.a(__uflow.o)
 .xtensa.info   0x0000000000000038        0x0 /opt/sming/Sming/compiler/lib//libmicroc.a(__toread.o)
 .xtensa.info   0x0000000000000038        0x0 /opt/sming/Sming/compiler/lib//libmicroc.a(__stdio_exit.o)
 .xtensa.info   0x0000000000000038        0x0 /opt/sming/Sming/compiler/lib//libmicroc.a(fmodl.o)
 .xtensa.info   0x0000000000000038        0x0 /opt/sming/Sming/compiler/lib//libmicroc.a(scalbn.o)
 .xtensa.info   0x0000000000000038        0x0 /opt/sming/Sming/compiler/lib//libmicroc.a(scalbnl.o)
 .xtensa.info   0x0000000000000038        0x0 /opt/sming/Sming/compiler/lib//libmicroc.a(__errno_location.o)
 .xtensa.info   0x0000000000000038        0x0 /opt/sming/Sming/compiler/lib//libmicroc.a(fmod.o)
 .xtensa.info   0x0000000000000038        0x0 /opt/sming/Sming/compiler/lib//libmicrogcc.a(_ashldi3.o)
 .xtensa.info   0x0000000000000038        0x0 /opt/sming/Sming/compiler/lib//libmicrogcc.a(_cmpdf2.o)
 .xtensa.info   0x0000000000000038        0x0 /opt/sming/Sming/compiler/lib//libmicrogcc.a(_lshrdi3.o)
 .xtensa.info   0x0000000000000038        0x0 /opt/sming/Sming/compiler/lib//libmicrogcc.a(_modsi3.o)
 .xtensa.info   0x0000000000000038        0x0 /opt/esp-open-sdk/xtensa-lx106-elf/xtensa-lx106-elf/sysroot/usr/lib/libhal.a(int_asm--set_intclear.o)
 .xtensa.info   0x0000000000000038        0x0 /opt/esp-open-sdk/sdk/lib/libphy.a(phy.o)
 .xtensa.info   0x0000000000000038        0x0 /opt/esp-open-sdk/sdk/lib/libphy.a(phy_chip_v6_ana.o)
 .xtensa.info   0x0000000000000038        0x0 /opt/esp-open-sdk/sdk/lib/libphy.a(phy_chip_v6.o)
 .xtensa.info   0x0000000000000038        0x0 /opt/esp-open-sdk/sdk/lib/libphy.a(phy_chip_v6_cal.o)
 .xtensa.info   0x0000000000000038        0x0 /opt/esp-open-sdk/sdk/lib/libphy.a(phy_chip_v6_unused.o)
 .xtensa.info   0x0000000000000038        0x0 /opt/esp-open-sdk/sdk/lib/libphy.a(phy_sleep.o)
 .xtensa.info   0x0000000000000038        0x0 /opt/esp-open-sdk/sdk/lib/libpp.a(if_hwctrl.o)
 .xtensa.info   0x0000000000000038        0x0 /opt/esp-open-sdk/sdk/lib/libpp.a(lmac.o)
 .xtensa.info   0x0000000000000038        0x0 /opt/esp-open-sdk/sdk/lib/libpp.a(pm.o)
 .xtensa.info   0x0000000000000038        0x0 /opt/esp-open-sdk/sdk/lib/libpp.a(pm_for_bcn_only_mode.o)
 .xtensa.info   0x0000000000000038        0x0 /opt/esp-open-sdk/sdk/lib/libpp.a(pp.o)
 .xtensa.info   0x0000000000000038        0x0 /opt/esp-open-sdk/sdk/lib/libpp.a(rate_control.o)
 .xtensa.info   0x0000000000000038        0x0 /opt/esp-open-sdk/sdk/lib/libpp.a(trc.o)
 .xtensa.info   0x0000000000000038        0x0 /opt/esp-open-sdk/sdk/lib/libpp.a(wdev.o)
 .xtensa.info   0x0000000000000038        0x0 /opt/esp-open-sdk/sdk/lib/libpp.a(esf_buf.o)
 .xtensa.info   0x0000000000000038        0x0 /opt/esp-open-sdk/sdk/lib/libnet80211.a(ieee80211.o)
 .xtensa.info   0x0000000000000038        0x0 /opt/esp-open-sdk/sdk/lib/libnet80211.a(ieee80211_crypto.o)
 .xtensa.info   0x0000000000000038        0x0 /opt/esp-open-sdk/sdk/lib/libnet80211.a(ieee80211_ets.o)
 .xtensa.info   0x0000000000000038        0x0 /opt/esp-open-sdk/sdk/lib/libnet80211.a(ieee80211_hostap.o)
 .xtensa.info   0x0000000000000038        0x0 /opt/esp-open-sdk/sdk/lib/libnet80211.a(ieee80211_ht.o)
 .xtensa.info   0x0000000000000038        0x0 /opt/esp-open-sdk/sdk/lib/libnet80211.a(ieee80211_input.o)
 .xtensa.info   0x0000000000000038        0x0 /opt/esp-open-sdk/sdk/lib/libnet80211.a(ieee80211_mesh_quick.o)
 .xtensa.info   0x0000000000000038        0x0 /opt/esp-open-sdk/sdk/lib/libnet80211.a(ieee80211_output.o)
 .xtensa.info   0x0000000000000038        0x0 /opt/esp-open-sdk/sdk/lib/libnet80211.a(ieee80211_phy.o)
 .xtensa.info   0x0000000000000038        0x0 /opt/esp-open-sdk/sdk/lib/libnet80211.a(ieee80211_power.o)
 .xtensa.info   0x0000000000000038        0x0 /opt/esp-open-sdk/sdk/lib/libnet80211.a(ieee80211_proto.o)
 .xtensa.info   0x0000000000000038        0x0 /opt/esp-open-sdk/sdk/lib/libnet80211.a(ieee80211_rfid.o)
 .xtensa.info   0x0000000000000038        0x0 /opt/esp-open-sdk/sdk/lib/libnet80211.a(ieee80211_scan.o)
 .xtensa.info   0x0000000000000038        0x0 /opt/esp-open-sdk/sdk/lib/libnet80211.a(ieee80211_sta.o)
 .xtensa.info   0x0000000000000038        0x0 /opt/esp-open-sdk/sdk/lib/libnet80211.a(wl_chm.o)
 .xtensa.info   0x0000000000000038        0x0 /opt/esp-open-sdk/sdk/lib/libnet80211.a(wl_cnx.o)
 .xtensa.info   0x0000000000000038        0x0 /opt/esp-open-sdk/sdk/lib/libnet80211.a(ieee80211_action.o)
 .xtensa.info   0x0000000000000038        0x0 /opt/esp-open-sdk/sdk/lib/libnet80211.a(ieee80211_action_vendor.o)
 .xtensa.info   0x0000000000000038        0x0 /opt/esp-open-sdk/sdk/lib/libnet80211.a(ieee80211_crypto_ccmp.o)
 .xtensa.info   0x0000000000000038        0x0 /opt/esp-open-sdk/sdk/lib/libnet80211.a(ieee80211_ie_vendor.o)
 .xtensa.info   0x0000000000000038        0x0 /opt/esp-open-sdk/sdk/lib/liblwip.a(dhcp.o)
 .xtensa.info   0x0000000000000038        0x0 /opt/esp-open-sdk/sdk/lib/liblwip.a(dhcpserver.o)
 .xtensa.info   0x0000000000000038        0x0 /opt/esp-open-sdk/sdk/lib/liblwip.a(dns.o)
 .xtensa.info   0x0000000000000038        0x0 /opt/esp-open-sdk/sdk/lib/liblwip.a(espconn_tcp.o)
 .xtensa.info   0x0000000000000038        0x0 /opt/esp-open-sdk/sdk/lib/liblwip.a(etharp.o)
 .xtensa.info   0x0000000000000038        0x0 /opt/esp-open-sdk/sdk/lib/liblwip.a(init.o)
 .xtensa.info   0x0000000000000038        0x0 /opt/esp-open-sdk/sdk/lib/liblwip.a(ip_addr.o)
 .xtensa.info   0x0000000000000038        0x0 /opt/esp-open-sdk/sdk/lib/liblwip.a(ip.o)
 .xtensa.info   0x0000000000000038        0x0 /opt/esp-open-sdk/sdk/lib/liblwip.a(memp.o)
 .xtensa.info   0x0000000000000038        0x0 /opt/esp-open-sdk/sdk/lib/liblwip.a(netif.o)
 .xtensa.info   0x0000000000000038        0x0 /opt/esp-open-sdk/sdk/lib/liblwip.a(pbuf.o)
 .xtensa.info   0x0000000000000038        0x0 /opt/esp-open-sdk/sdk/lib/liblwip.a(raw.o)
 .xtensa.info   0x0000000000000038        0x0 /opt/esp-open-sdk/sdk/lib/liblwip.a(tcp_in.o)
 .xtensa.info   0x0000000000000038        0x0 /opt/esp-open-sdk/sdk/lib/liblwip.a(tcp.o)
 .xtensa.info   0x0000000000000038        0x0 /opt/esp-open-sdk/sdk/lib/liblwip.a(tcp_out.o)
 .xtensa.info   0x0000000000000038        0x0 /opt/esp-open-sdk/sdk/lib/liblwip.a(timers.o)
 .xtensa.info   0x0000000000000038        0x0 /opt/esp-open-sdk/sdk/lib/liblwip.a(udp.o)
 .xtensa.info   0x0000000000000038        0x0 /opt/esp-open-sdk/sdk/lib/liblwip.a(espconn.o)
 .xtensa.info   0x0000000000000038        0x0 /opt/esp-open-sdk/sdk/lib/liblwip.a(espconn_udp.o)
 .xtensa.info   0x0000000000000038        0x0 /opt/esp-open-sdk/sdk/lib/liblwip.a(icmp.o)
 .xtensa.info   0x0000000000000038        0x0 /opt/esp-open-sdk/sdk/lib/liblwip.a(igmp.o)
 .xtensa.info   0x0000000000000038        0x0 /opt/esp-open-sdk/sdk/lib/liblwip.a(inet_chksum.o)
 .xtensa.info   0x0000000000000038        0x0 /opt/esp-open-sdk/sdk/lib/libwpa.a(ap_config.o)
 .xtensa.info   0x0000000000000038        0x0 /opt/esp-open-sdk/sdk/lib/libwpa.a(common.o)
 .xtensa.info   0x0000000000000038        0x0 /opt/esp-open-sdk/sdk/lib/libwpa.a(os_xtensa.o)
 .xtensa.info   0x0000000000000038        0x0 /opt/esp-open-sdk/sdk/lib/libwpa.a(wpa_auth.o)
 .xtensa.info   0x0000000000000038        0x0 /opt/esp-open-sdk/sdk/lib/libwpa.a(wpa_auth_ie.o)
 .xtensa.info   0x0000000000000038        0x0 /opt/esp-open-sdk/sdk/lib/libwpa.a(wpa.o)
 .xtensa.info   0x0000000000000038        0x0 /opt/esp-open-sdk/sdk/lib/libwpa.a(wpa_common.o)
 .xtensa.info   0x0000000000000038        0x0 /opt/esp-open-sdk/sdk/lib/libwpa.a(wpa_debug.o)
 .xtensa.info   0x0000000000000038        0x0 /opt/esp-open-sdk/sdk/lib/libwpa.a(wpa_ie.o)
 .xtensa.info   0x0000000000000038        0x0 /opt/esp-open-sdk/sdk/lib/libwpa.a(wpa_main.o)
 .xtensa.info   0x0000000000000038        0x0 /opt/esp-open-sdk/sdk/lib/libwpa.a(wpas_glue.o)
 .xtensa.info   0x0000000000000038        0x0 /opt/esp-open-sdk/sdk/lib/libwpa.a(aes-wrap.o)
 .xtensa.info   0x0000000000000038        0x0 /opt/esp-open-sdk/sdk/lib/libwpa.a(aes-internal-enc.o)
 .xtensa.info   0x0000000000000038        0x0 /opt/esp-open-sdk/sdk/lib/libwpa.a(aes-internal.o)
 .xtensa.info   0x0000000000000038        0x0 /opt/sming/Sming/compiler/lib//libsming.a(Timer.o)
 .xtensa.info   0x0000000000000038        0x0 /opt/sming/Sming/compiler/lib//libmicrogcc.a(_ashrdi3.o)
 .xtensa.info   0x0000000000000038        0x0 /opt/sming/Sming/compiler/lib//libmicrogcc.a(_divsf3.o)
 .xtensa.info   0x0000000000000038        0x0 /opt/sming/Sming/compiler/lib//libmicrogcc.a(_fixsfsi.o)
 .xtensa.info   0x0000000000000038        0x0 /opt/esp-open-sdk/sdk/lib/libnet80211.a(ieee80211_crypto_tkip.o)
 .xtensa.info   0x0000000000000038        0x0 /opt/esp-open-sdk/sdk/lib/libnet80211.a(ieee80211_crypto_wep.o)

.comment        0x0000000000000000     0x1b1c
 .comment       0x0000000000000000       0x55 /opt/esp-open-sdk/sdk/lib/libmain.a(app_main.o)
                                         0x56 (size before relaxing)
 .comment       0x0000000000000055       0x56 /opt/esp-open-sdk/sdk/lib/libmain.a(ets_timer.o)
                                         0x57 (size before relaxing)
 .comment       0x00000000000000ab       0x58 /opt/esp-open-sdk/sdk/lib/libmain.a(mem_manager.o)
                                         0x59 (size before relaxing)
 .comment       0x0000000000000103       0x56 /opt/esp-open-sdk/sdk/lib/libmain.a(spi_flash.o)
                                         0x57 (size before relaxing)
 .comment       0x0000000000000159       0x5b /opt/esp-open-sdk/sdk/lib/libmain.a(user_interface.o)
                                         0x5c (size before relaxing)
 .comment       0x00000000000001b4       0x56 /opt/esp-open-sdk/sdk/lib/libmain.a(eagle_lib.o)
                                         0x57 (size before relaxing)
 .comment       0x000000000000020a       0x5a /opt/esp-open-sdk/sdk/lib/libmain.a(eagle_lwip_if.o)
                                         0x5b (size before relaxing)
 .comment       0x0000000000000264       0x40 /opt/sming/Sming/compiler/lib//libsming.a(user_main.o)
                                         0x41 (size before relaxing)
 .comment       0x00000000000002a4       0x41 /opt/sming/Sming/compiler/lib//libsming.a(System.o)
 .comment       0x00000000000002a4       0x41 /opt/sming/Sming/compiler/lib//libsming.a(esp_cplusplus.o)
 .comment       0x00000000000002a4       0x41 /opt/sming/Sming/compiler/lib//libsming.a(m_printf.o)
 .comment       0x00000000000002a4       0x41 /opt/sming/Sming/compiler/lib//libsming.a(stringconversion.o)
 .comment       0x00000000000002a4       0x41 /opt/sming/Sming/compiler/lib//libsming.a(IPAddress.o)
 .comment       0x00000000000002a4       0x41 /opt/sming/Sming/compiler/lib//libsming.a(Print.o)
 .comment       0x00000000000002a4       0x41 /opt/sming/Sming/compiler/lib//libsming.a(WString.o)
 .comment       0x00000000000002a4       0x41 /opt/sming/Sming/compiler/lib//libsming.a(Interrupts.o)
 .comment       0x00000000000002a4       0x41 /opt/sming/Sming/compiler/lib//libsming.a(Digital.o)
 .comment       0x00000000000002a4       0x41 out/build/app_app.a(application.o)
 .comment       0x00000000000002a4       0x11 /opt/sming/Sming/compiler/lib//libmicroc.a(isspace.o)
                                         0x12 (size before relaxing)
 .comment       0x00000000000002b5       0x12 /opt/sming/Sming/compiler/lib//libmicroc.a(tolower.o)
 .comment       0x00000000000002b5       0x12 /opt/sming/Sming/compiler/lib//libmicroc.a(toupper.o)
 .comment       0x00000000000002b5       0x12 /opt/sming/Sming/compiler/lib//libmicroc.a(atof.o)
 .comment       0x00000000000002b5       0x12 /opt/sming/Sming/compiler/lib//libmicroc.a(atoi.o)
 .comment       0x00000000000002b5       0x12 /opt/sming/Sming/compiler/lib//libmicroc.a(strtod.o)
 .comment       0x00000000000002b5       0x12 /opt/sming/Sming/compiler/lib//libmicroc.a(__fpclassify.o)
 .comment       0x00000000000002b5       0x12 /opt/sming/Sming/compiler/lib//libmicroc.a(strchr.o)
 .comment       0x00000000000002b5       0x12 /opt/sming/Sming/compiler/lib//libmicroc.a(strrchr.o)
 .comment       0x00000000000002b5       0x12 /opt/sming/Sming/compiler/lib//libmicroc.a(strchrnul.o)
 .comment       0x00000000000002b5       0x12 /opt/sming/Sming/compiler/lib//libmicroc.a(malloc.o)
 .comment       0x00000000000002b5       0x12 /opt/sming/Sming/compiler/lib//libmicroc.a(abort.o)
 .comment       0x00000000000002b5       0x12 /opt/sming/Sming/compiler/lib//libmicroc.a(floatscan.o)
 .comment       0x00000000000002b5       0x12 /opt/sming/Sming/compiler/lib//libmicroc.a(shgetc.o)
 .comment       0x00000000000002b5       0x12 /opt/sming/Sming/compiler/lib//libmicroc.a(__uflow.o)
 .comment       0x00000000000002b5       0x12 /opt/sming/Sming/compiler/lib//libmicroc.a(__toread.o)
 .comment       0x00000000000002b5       0x12 /opt/sming/Sming/compiler/lib//libmicroc.a(__stdio_exit.o)
 .comment       0x00000000000002b5       0x12 /opt/sming/Sming/compiler/lib//libmicroc.a(fmodl.o)
 .comment       0x00000000000002b5       0x12 /opt/sming/Sming/compiler/lib//libmicroc.a(scalbn.o)
 .comment       0x00000000000002b5       0x12 /opt/sming/Sming/compiler/lib//libmicroc.a(scalbnl.o)
 .comment       0x00000000000002b5       0x12 /opt/sming/Sming/compiler/lib//libmicroc.a(__errno_location.o)
 .comment       0x00000000000002b5       0x12 /opt/sming/Sming/compiler/lib//libmicroc.a(fmod.o)
 .comment       0x00000000000002b5       0x41 /opt/esp-open-sdk/sdk/lib/libphy.a(phy.o)
 .comment       0x00000000000002f6       0x4d /opt/esp-open-sdk/sdk/lib/libphy.a(phy_chip_v6_ana.o)
 .comment       0x0000000000000343       0x49 /opt/esp-open-sdk/sdk/lib/libphy.a(phy_chip_v6.o)
 .comment       0x000000000000038c       0x4d /opt/esp-open-sdk/sdk/lib/libphy.a(phy_chip_v6_cal.o)
 .comment       0x00000000000003d9       0x50 /opt/esp-open-sdk/sdk/lib/libphy.a(phy_chip_v6_unused.o)
 .comment       0x0000000000000429       0x47 /opt/esp-open-sdk/sdk/lib/libphy.a(phy_sleep.o)
 .comment       0x0000000000000470       0x56 /opt/esp-open-sdk/sdk/lib/libpp.a(if_hwctrl.o)
                                         0x57 (size before relaxing)
 .comment       0x00000000000004c6       0x51 /opt/esp-open-sdk/sdk/lib/libpp.a(lmac.o)
                                         0x52 (size before relaxing)
 .comment       0x0000000000000517       0x4f /opt/esp-open-sdk/sdk/lib/libpp.a(pm.o)
                                         0x50 (size before relaxing)
 .comment       0x0000000000000566       0x61 /opt/esp-open-sdk/sdk/lib/libpp.a(pm_for_bcn_only_mode.o)
                                         0x62 (size before relaxing)
 .comment       0x00000000000005c7       0x4f /opt/esp-open-sdk/sdk/lib/libpp.a(pp.o)
                                         0x50 (size before relaxing)
 .comment       0x0000000000000616       0x59 /opt/esp-open-sdk/sdk/lib/libpp.a(rate_control.o)
                                         0x5a (size before relaxing)
 .comment       0x000000000000066f       0x50 /opt/esp-open-sdk/sdk/lib/libpp.a(trc.o)
                                         0x51 (size before relaxing)
 .comment       0x00000000000006bf       0x51 /opt/esp-open-sdk/sdk/lib/libpp.a(wdev.o)
                                         0x52 (size before relaxing)
 .comment       0x0000000000000710       0x54 /opt/esp-open-sdk/sdk/lib/libpp.a(esf_buf.o)
                                         0x55 (size before relaxing)
 .comment       0x0000000000000764       0x56 /opt/esp-open-sdk/sdk/lib/libnet80211.a(ieee80211.o)
                                         0x57 (size before relaxing)
 .comment       0x00000000000007ba       0x5d /opt/esp-open-sdk/sdk/lib/libnet80211.a(ieee80211_crypto.o)
                                         0x5e (size before relaxing)
 .comment       0x0000000000000817       0x5a /opt/esp-open-sdk/sdk/lib/libnet80211.a(ieee80211_ets.o)
                                         0x5b (size before relaxing)
 .comment       0x0000000000000871       0x5d /opt/esp-open-sdk/sdk/lib/libnet80211.a(ieee80211_hostap.o)
                                         0x5e (size before relaxing)
 .comment       0x00000000000008ce       0x59 /opt/esp-open-sdk/sdk/lib/libnet80211.a(ieee80211_ht.o)
                                         0x5a (size before relaxing)
 .comment       0x0000000000000927       0x5c /opt/esp-open-sdk/sdk/lib/libnet80211.a(ieee80211_input.o)
                                         0x5d (size before relaxing)
 .comment       0x0000000000000983       0x61 /opt/esp-open-sdk/sdk/lib/libnet80211.a(ieee80211_mesh_quick.o)
                                         0x62 (size before relaxing)
 .comment       0x00000000000009e4       0x5d /opt/esp-open-sdk/sdk/lib/libnet80211.a(ieee80211_output.o)
                                         0x5e (size before relaxing)
 .comment       0x0000000000000a41       0x5a /opt/esp-open-sdk/sdk/lib/libnet80211.a(ieee80211_phy.o)
                                         0x5b (size before relaxing)
 .comment       0x0000000000000a9b       0x5c /opt/esp-open-sdk/sdk/lib/libnet80211.a(ieee80211_power.o)
                                         0x5d (size before relaxing)
 .comment       0x0000000000000af7       0x5c /opt/esp-open-sdk/sdk/lib/libnet80211.a(ieee80211_proto.o)
                                         0x5d (size before relaxing)
 .comment       0x0000000000000b53       0x5b /opt/esp-open-sdk/sdk/lib/libnet80211.a(ieee80211_rfid.o)
                                         0x5c (size before relaxing)
 .comment       0x0000000000000bae       0x5b /opt/esp-open-sdk/sdk/lib/libnet80211.a(ieee80211_scan.o)
                                         0x5c (size before relaxing)
 .comment       0x0000000000000c09       0x5a /opt/esp-open-sdk/sdk/lib/libnet80211.a(ieee80211_sta.o)
                                         0x5b (size before relaxing)
 .comment       0x0000000000000c63       0x53 /opt/esp-open-sdk/sdk/lib/libnet80211.a(wl_chm.o)
                                         0x54 (size before relaxing)
 .comment       0x0000000000000cb6       0x53 /opt/esp-open-sdk/sdk/lib/libnet80211.a(wl_cnx.o)
                                         0x54 (size before relaxing)
 .comment       0x0000000000000d09       0x5d /opt/esp-open-sdk/sdk/lib/libnet80211.a(ieee80211_action.o)
                                         0x5e (size before relaxing)
 .comment       0x0000000000000d66       0x64 /opt/esp-open-sdk/sdk/lib/libnet80211.a(ieee80211_action_vendor.o)
                                         0x65 (size before relaxing)
 .comment       0x0000000000000dca       0x62 /opt/esp-open-sdk/sdk/lib/libnet80211.a(ieee80211_crypto_ccmp.o)
                                         0x63 (size before relaxing)
 .comment       0x0000000000000e2c       0x60 /opt/esp-open-sdk/sdk/lib/libnet80211.a(ieee80211_ie_vendor.o)
                                         0x61 (size before relaxing)
 .comment       0x0000000000000e8c       0x51 /opt/esp-open-sdk/sdk/lib/liblwip.a(dhcp.o)
                                         0x52 (size before relaxing)
 .comment       0x0000000000000edd       0x57 /opt/esp-open-sdk/sdk/lib/liblwip.a(dhcpserver.o)
                                         0x58 (size before relaxing)
 .comment       0x0000000000000f34       0x50 /opt/esp-open-sdk/sdk/lib/liblwip.a(dns.o)
                                         0x51 (size before relaxing)
 .comment       0x0000000000000f84       0x58 /opt/esp-open-sdk/sdk/lib/liblwip.a(espconn_tcp.o)
                                         0x59 (size before relaxing)
 .comment       0x0000000000000fdc       0x53 /opt/esp-open-sdk/sdk/lib/liblwip.a(etharp.o)
                                         0x54 (size before relaxing)
 .comment       0x000000000000102f       0x51 /opt/esp-open-sdk/sdk/lib/liblwip.a(init.o)
                                         0x52 (size before relaxing)
 .comment       0x0000000000001080       0x54 /opt/esp-open-sdk/sdk/lib/liblwip.a(ip_addr.o)
                                         0x55 (size before relaxing)
 .comment       0x00000000000010d4       0x4f /opt/esp-open-sdk/sdk/lib/liblwip.a(ip.o)
                                         0x50 (size before relaxing)
 .comment       0x0000000000001123       0x51 /opt/esp-open-sdk/sdk/lib/liblwip.a(memp.o)
                                         0x52 (size before relaxing)
 .comment       0x0000000000001174       0x52 /opt/esp-open-sdk/sdk/lib/liblwip.a(netif.o)
                                         0x53 (size before relaxing)
 .comment       0x00000000000011c6       0x51 /opt/esp-open-sdk/sdk/lib/liblwip.a(pbuf.o)
                                         0x52 (size before relaxing)
 .comment       0x0000000000001217       0x50 /opt/esp-open-sdk/sdk/lib/liblwip.a(raw.o)
                                         0x51 (size before relaxing)
 .comment       0x0000000000001267       0x53 /opt/esp-open-sdk/sdk/lib/liblwip.a(tcp_in.o)
                                         0x54 (size before relaxing)
 .comment       0x00000000000012ba       0x50 /opt/esp-open-sdk/sdk/lib/liblwip.a(tcp.o)
                                         0x51 (size before relaxing)
 .comment       0x000000000000130a       0x54 /opt/esp-open-sdk/sdk/lib/liblwip.a(tcp_out.o)
                                         0x55 (size before relaxing)
 .comment       0x000000000000135e       0x53 /opt/esp-open-sdk/sdk/lib/liblwip.a(timers.o)
                                         0x54 (size before relaxing)
 .comment       0x00000000000013b1       0x50 /opt/esp-open-sdk/sdk/lib/liblwip.a(udp.o)
                                         0x51 (size before relaxing)
 .comment       0x0000000000001401       0x54 /opt/esp-open-sdk/sdk/lib/liblwip.a(espconn.o)
                                         0x55 (size before relaxing)
 .comment       0x0000000000001455       0x58 /opt/esp-open-sdk/sdk/lib/liblwip.a(espconn_udp.o)
                                         0x59 (size before relaxing)
 .comment       0x00000000000014ad       0x51 /opt/esp-open-sdk/sdk/lib/liblwip.a(icmp.o)
                                         0x52 (size before relaxing)
 .comment       0x00000000000014fe       0x51 /opt/esp-open-sdk/sdk/lib/liblwip.a(igmp.o)
                                         0x52 (size before relaxing)
 .comment       0x000000000000154f       0x58 /opt/esp-open-sdk/sdk/lib/liblwip.a(inet_chksum.o)
                                         0x59 (size before relaxing)
 .comment       0x00000000000015a7       0x56 /opt/esp-open-sdk/sdk/lib/libwpa.a(ap_config.o)
                                         0x57 (size before relaxing)
 .comment       0x00000000000015fd       0x53 /opt/esp-open-sdk/sdk/lib/libwpa.a(common.o)
                                         0x54 (size before relaxing)
 .comment       0x0000000000001650       0x56 /opt/esp-open-sdk/sdk/lib/libwpa.a(os_xtensa.o)
                                         0x57 (size before relaxing)
 .comment       0x00000000000016a6       0x55 /opt/esp-open-sdk/sdk/lib/libwpa.a(wpa_auth.o)
                                         0x56 (size before relaxing)
 .comment       0x00000000000016fb       0x58 /opt/esp-open-sdk/sdk/lib/libwpa.a(wpa_auth_ie.o)
                                         0x59 (size before relaxing)
 .comment       0x0000000000001753       0x50 /opt/esp-open-sdk/sdk/lib/libwpa.a(wpa.o)
                                         0x51 (size before relaxing)
 .comment       0x00000000000017a3       0x57 /opt/esp-open-sdk/sdk/lib/libwpa.a(wpa_common.o)
                                         0x58 (size before relaxing)
 .comment       0x00000000000017fa       0x56 /opt/esp-open-sdk/sdk/lib/libwpa.a(wpa_debug.o)
                                         0x57 (size before relaxing)
 .comment       0x0000000000001850       0x53 /opt/esp-open-sdk/sdk/lib/libwpa.a(wpa_ie.o)
                                         0x54 (size before relaxing)
 .comment       0x00000000000018a3       0x55 /opt/esp-open-sdk/sdk/lib/libwpa.a(wpa_main.o)
                                         0x56 (size before relaxing)
 .comment       0x00000000000018f8       0x56 /opt/esp-open-sdk/sdk/lib/libwpa.a(wpas_glue.o)
                                         0x57 (size before relaxing)
 .comment       0x000000000000194e       0x55 /opt/esp-open-sdk/sdk/lib/libwpa.a(aes-wrap.o)
                                         0x56 (size before relaxing)
 .comment       0x00000000000019a3       0x5d /opt/esp-open-sdk/sdk/lib/libwpa.a(aes-internal-enc.o)
                                         0x5e (size before relaxing)
 .comment       0x0000000000001a00       0x59 /opt/esp-open-sdk/sdk/lib/libwpa.a(aes-internal.o)
                                         0x5a (size before relaxing)
 .comment       0x0000000000001a59       0x41 /opt/sming/Sming/compiler/lib//libsming.a(Timer.o)
 .comment       0x0000000000001a59       0x62 /opt/esp-open-sdk/sdk/lib/libnet80211.a(ieee80211_crypto_tkip.o)
                                         0x63 (size before relaxing)
 .comment       0x0000000000001abb       0x61 /opt/esp-open-sdk/sdk/lib/libnet80211.a(ieee80211_crypto_wep.o)
                                         0x62 (size before relaxing)

.xt.lit._ZN17ESP01_DescriptionC2Ev
                0x0000000000000000        0x8
 .xt.lit._ZN17ESP01_DescriptionC2Ev
                0x0000000000000000        0x8 /opt/sming/Sming/compiler/lib//libsming.a(user_main.o)

.xt.prop._ZN17ESP01_DescriptionC2Ev
                0x0000000000000000       0x30
 .xt.prop._ZN17ESP01_DescriptionC2Ev
                0x0000000000000000       0x30 /opt/sming/Sming/compiler/lib//libsming.a(user_main.o)

.xt.lit._ZN6VectorI8DelegateIFvvEEEixEj
                0x0000000000000000        0x0
 .xt.lit._ZN6VectorI8DelegateIFvvEEEixEj
                0x0000000000000000        0x0 /opt/sming/Sming/compiler/lib//libsming.a(System.o)
                                          0x8 (size before relaxing)

.xt.lit._ZN6VectorIP19ISystemReadyHandlerEixEj
                0x0000000000000000        0x0
 .xt.lit._ZN6VectorIP19ISystemReadyHandlerEixEj
                0x0000000000000000        0x0 /opt/sming/Sming/compiler/lib//libsming.a(System.o)
                                          0x8 (size before relaxing)

.xt.lit._ZNK6VectorIP19ISystemReadyHandlerEixEj
                0x0000000000000000        0x0
 .xt.lit._ZNK6VectorIP19ISystemReadyHandlerEixEj
                0x0000000000000000        0x0 /opt/sming/Sming/compiler/lib//libsming.a(System.o)
                                          0x8 (size before relaxing)

.xt.lit._ZNK6VectorI8DelegateIFvvEEEixEj
                0x0000000000000000        0x0
 .xt.lit._ZNK6VectorI8DelegateIFvvEEEixEj
                0x0000000000000000        0x0 /opt/sming/Sming/compiler/lib//libsming.a(System.o)
                                          0x8 (size before relaxing)

.xt.lit._ZN6VectorI8DelegateIFvvEEE17removeAllElementsEv
                0x0000000000000000        0x0
 .xt.lit._ZN6VectorI8DelegateIFvvEEE17removeAllElementsEv
                0x0000000000000000        0x0 /opt/sming/Sming/compiler/lib//libsming.a(System.o)
                                          0x8 (size before relaxing)

.xt.lit._ZN6VectorI8DelegateIFvvEEED2Ev
                0x0000000000000000        0x0
 .xt.lit._ZN6VectorI8DelegateIFvvEEED2Ev
                0x0000000000000000        0x0 /opt/sming/Sming/compiler/lib//libsming.a(System.o)
                                          0x8 (size before relaxing)

.xt.lit._ZN6VectorI8DelegateIFvvEEED0Ev
                0x0000000000000000        0x0
 .xt.lit._ZN6VectorI8DelegateIFvvEEED0Ev
                0x0000000000000000        0x0 /opt/sming/Sming/compiler/lib//libsming.a(System.o)
                                          0x8 (size before relaxing)

.xt.lit._ZN6VectorIP19ISystemReadyHandlerE17removeAllElementsEv
                0x0000000000000000        0x0
 .xt.lit._ZN6VectorIP19ISystemReadyHandlerE17removeAllElementsEv
                0x0000000000000000        0x0 /opt/sming/Sming/compiler/lib//libsming.a(System.o)
                                          0x8 (size before relaxing)

.xt.lit._ZN6VectorIP19ISystemReadyHandlerED2Ev
                0x0000000000000000        0x0
 .xt.lit._ZN6VectorIP19ISystemReadyHandlerED2Ev
                0x0000000000000000        0x0 /opt/sming/Sming/compiler/lib//libsming.a(System.o)
                                          0x8 (size before relaxing)

.xt.lit._ZN6VectorIP19ISystemReadyHandlerED0Ev
                0x0000000000000000        0x0
 .xt.lit._ZN6VectorIP19ISystemReadyHandlerED0Ev
                0x0000000000000000        0x0 /opt/sming/Sming/compiler/lib//libsming.a(System.o)
                                          0x8 (size before relaxing)

.xt.prop._ZNK6VectorI8DelegateIFvvEEE5countEv
                0x0000000000000000       0x24
 .xt.prop._ZNK6VectorI8DelegateIFvvEEE5countEv
                0x0000000000000000       0x24 /opt/sming/Sming/compiler/lib//libsming.a(System.o)

.xt.prop._ZNK6VectorIP19ISystemReadyHandlerE5countEv
                0x0000000000000000       0x24
 .xt.prop._ZNK6VectorIP19ISystemReadyHandlerE5countEv
                0x0000000000000000       0x24 /opt/sming/Sming/compiler/lib//libsming.a(System.o)

.xt.prop._ZN6VectorI8DelegateIFvvEEEixEj
                0x0000000000000000       0x48
 .xt.prop._ZN6VectorI8DelegateIFvvEEEixEj
                0x0000000000000000       0x48 /opt/sming/Sming/compiler/lib//libsming.a(System.o)

.xt.prop._ZN6VectorIP19ISystemReadyHandlerEixEj
                0x0000000000000000       0x48
 .xt.prop._ZN6VectorIP19ISystemReadyHandlerEixEj
                0x0000000000000000       0x48 /opt/sming/Sming/compiler/lib//libsming.a(System.o)

.xt.prop._ZNK6VectorIP19ISystemReadyHandlerEixEj
                0x0000000000000000       0x3c
 .xt.prop._ZNK6VectorIP19ISystemReadyHandlerEixEj
                0x0000000000000000       0x3c /opt/sming/Sming/compiler/lib//libsming.a(System.o)

.xt.prop._ZNK6VectorI8DelegateIFvvEEEixEj
                0x0000000000000000       0x3c
 .xt.prop._ZNK6VectorI8DelegateIFvvEEEixEj
                0x0000000000000000       0x3c /opt/sming/Sming/compiler/lib//libsming.a(System.o)

.xt.prop._ZN6VectorI8DelegateIFvvEEE17removeAllElementsEv
                0x0000000000000000       0x54
 .xt.prop._ZN6VectorI8DelegateIFvvEEE17removeAllElementsEv
                0x0000000000000000       0x54 /opt/sming/Sming/compiler/lib//libsming.a(System.o)

.xt.prop._ZN6VectorI8DelegateIFvvEEED2Ev
                0x0000000000000000       0x30
 .xt.prop._ZN6VectorI8DelegateIFvvEEED2Ev
                0x0000000000000000       0x30 /opt/sming/Sming/compiler/lib//libsming.a(System.o)

.xt.prop._ZN6VectorI8DelegateIFvvEEED0Ev
                0x0000000000000000       0x30
 .xt.prop._ZN6VectorI8DelegateIFvvEEED0Ev
                0x0000000000000000       0x30 /opt/sming/Sming/compiler/lib//libsming.a(System.o)

.xt.prop._ZN6VectorIP19ISystemReadyHandlerE17removeAllElementsEv
                0x0000000000000000       0x48
 .xt.prop._ZN6VectorIP19ISystemReadyHandlerE17removeAllElementsEv
                0x0000000000000000       0x48 /opt/sming/Sming/compiler/lib//libsming.a(System.o)

.xt.prop._ZN6VectorIP19ISystemReadyHandlerED2Ev
                0x0000000000000000       0x30
 .xt.prop._ZN6VectorIP19ISystemReadyHandlerED2Ev
                0x0000000000000000       0x30 /opt/sming/Sming/compiler/lib//libsming.a(System.o)

.xt.prop._ZN6VectorIP19ISystemReadyHandlerED0Ev
                0x0000000000000000       0x30
 .xt.prop._ZN6VectorIP19ISystemReadyHandlerED0Ev
                0x0000000000000000       0x30 /opt/sming/Sming/compiler/lib//libsming.a(System.o)

.xt.prop._ZTV6VectorI8DelegateIFvvEEE
                0x0000000000000000        0xc
 .xt.prop._ZTV6VectorI8DelegateIFvvEEE
                0x0000000000000000        0xc /opt/sming/Sming/compiler/lib//libsming.a(System.o)

.xt.prop._ZTV6VectorIP19ISystemReadyHandlerE
                0x0000000000000000        0xc
 .xt.prop._ZTV6VectorIP19ISystemReadyHandlerE
                0x0000000000000000        0xc /opt/sming/Sming/compiler/lib//libsming.a(System.o)

.xt.prop._ZTV9IPAddress
                0x0000000000000000        0xc
 .xt.prop._ZTV9IPAddress
                0x0000000000000000        0xc /opt/sming/Sming/compiler/lib//libsming.a(IPAddress.o)

.xt.lit._ZN5Print5writeEPKc
                0x0000000000000000        0x0
 .xt.lit._ZN5Print5writeEPKc
                0x0000000000000000        0x0 /opt/sming/Sming/compiler/lib//libsming.a(Print.o)
                                          0x8 (size before relaxing)

.xt.prop._ZN5Print5writeEPKc
                0x0000000000000000       0x3c
 .xt.prop._ZN5Print5writeEPKc
                0x0000000000000000       0x3c /opt/sming/Sming/compiler/lib//libsming.a(Print.o)

.xt.prop._ZN8DelegateIFvvEE4copyERKS1_
                0x0000000000000000       0x24
 .xt.prop._ZN8DelegateIFvvEE4copyERKS1_
                0x0000000000000000       0x24 /opt/sming/Sming/compiler/lib//libsming.a(Interrupts.o)

.debug_frame    0x0000000000000000     0x2310
 .debug_frame   0x0000000000000000       0x70 /opt/sming/Sming/compiler/lib//libsming.a(user_main.o)
 .debug_frame   0x0000000000000070      0x3ac /opt/sming/Sming/compiler/lib//libsming.a(System.o)
 .debug_frame   0x000000000000041c      0x120 /opt/sming/Sming/compiler/lib//libsming.a(esp_cplusplus.o)
 .debug_frame   0x000000000000053c       0xc0 /opt/sming/Sming/compiler/lib//libsming.a(m_printf.o)
 .debug_frame   0x00000000000005fc       0xf8 /opt/sming/Sming/compiler/lib//libsming.a(stringconversion.o)
 .debug_frame   0x00000000000006f4      0x1b8 /opt/sming/Sming/compiler/lib//libsming.a(IPAddress.o)
 .debug_frame   0x00000000000008ac      0x3d4 /opt/sming/Sming/compiler/lib//libsming.a(Print.o)
 .debug_frame   0x0000000000000c80      0xa9c /opt/sming/Sming/compiler/lib//libsming.a(WString.o)
 .debug_frame   0x000000000000171c      0x270 /opt/sming/Sming/compiler/lib//libsming.a(Interrupts.o)
 .debug_frame   0x000000000000198c       0xe0 /opt/sming/Sming/compiler/lib//libsming.a(Digital.o)
 .debug_frame   0x0000000000001a6c       0xa8 out/build/app_app.a(application.o)
 .debug_frame   0x0000000000001b14       0x20 /opt/sming/Sming/compiler/lib//libmicroc.a(isspace.o)
 .debug_frame   0x0000000000001b34       0x20 /opt/sming/Sming/compiler/lib//libmicroc.a(tolower.o)
 .debug_frame   0x0000000000001b54       0x20 /opt/sming/Sming/compiler/lib//libmicroc.a(toupper.o)
 .debug_frame   0x0000000000001b74       0x30 /opt/sming/Sming/compiler/lib//libmicroc.a(atof.o)
 .debug_frame   0x0000000000001ba4       0x20 /opt/sming/Sming/compiler/lib//libmicroc.a(atoi.o)
 .debug_frame   0x0000000000001bc4       0xa0 /opt/sming/Sming/compiler/lib//libmicroc.a(strtod.o)
 .debug_frame   0x0000000000001c64       0x40 /opt/sming/Sming/compiler/lib//libmicroc.a(__fpclassify.o)
 .debug_frame   0x0000000000001ca4       0x30 /opt/sming/Sming/compiler/lib//libmicroc.a(strchr.o)
 .debug_frame   0x0000000000001cd4       0x30 /opt/sming/Sming/compiler/lib//libmicroc.a(strrchr.o)
 .debug_frame   0x0000000000001d04       0x30 /opt/sming/Sming/compiler/lib//libmicroc.a(strchrnul.o)
 .debug_frame   0x0000000000001d34       0xb0 /opt/sming/Sming/compiler/lib//libmicroc.a(malloc.o)
 .debug_frame   0x0000000000001de4       0x30 /opt/sming/Sming/compiler/lib//libmicroc.a(abort.o)
 .debug_frame   0x0000000000001e14       0x94 /opt/sming/Sming/compiler/lib//libmicroc.a(floatscan.o)
 .debug_frame   0x0000000000001ea8       0x48 /opt/sming/Sming/compiler/lib//libmicroc.a(shgetc.o)
 .debug_frame   0x0000000000001ef0       0x38 /opt/sming/Sming/compiler/lib//libmicroc.a(__uflow.o)
 .debug_frame   0x0000000000001f28       0x50 /opt/sming/Sming/compiler/lib//libmicroc.a(__toread.o)
 .debug_frame   0x0000000000001f78       0x20 /opt/sming/Sming/compiler/lib//libmicroc.a(__stdio_exit.o)
 .debug_frame   0x0000000000001f98       0x30 /opt/sming/Sming/compiler/lib//libmicroc.a(fmodl.o)
 .debug_frame   0x0000000000001fc8       0x34 /opt/sming/Sming/compiler/lib//libmicroc.a(scalbn.o)
 .debug_frame   0x0000000000001ffc       0x30 /opt/sming/Sming/compiler/lib//libmicroc.a(scalbnl.o)
 .debug_frame   0x000000000000202c       0x20 /opt/sming/Sming/compiler/lib//libmicroc.a(__errno_location.o)
 .debug_frame   0x000000000000204c       0x3c /opt/sming/Sming/compiler/lib//libmicroc.a(fmod.o)
 .debug_frame   0x0000000000002088      0x288 /opt/sming/Sming/compiler/lib//libsming.a(Timer.o)

.debug_info     0x0000000000000000    0x1a2e4
 .debug_info    0x0000000000000000     0x2c8e /opt/sming/Sming/compiler/lib//libsming.a(user_main.o)
 .debug_info    0x0000000000002c8e     0x25db /opt/sming/Sming/compiler/lib//libsming.a(System.o)
 .debug_info    0x0000000000005269      0x391 /opt/sming/Sming/compiler/lib//libsming.a(esp_cplusplus.o)
 .debug_info    0x00000000000055fa     0x2c12 /opt/sming/Sming/compiler/lib//libsming.a(m_printf.o)
 .debug_info    0x000000000000820c      0x694 /opt/sming/Sming/compiler/lib//libsming.a(stringconversion.o)
 .debug_info    0x00000000000088a0     0x33cc /opt/sming/Sming/compiler/lib//libsming.a(IPAddress.o)
 .debug_info    0x000000000000bc6c     0x25bb /opt/sming/Sming/compiler/lib//libsming.a(Print.o)
 .debug_info    0x000000000000e227     0x38e1 /opt/sming/Sming/compiler/lib//libsming.a(WString.o)
 .debug_info    0x0000000000011b08     0x1077 /opt/sming/Sming/compiler/lib//libsming.a(Interrupts.o)
 .debug_info    0x0000000000012b7f      0x5b6 /opt/sming/Sming/compiler/lib//libsming.a(Digital.o)
 .debug_info    0x0000000000013135     0x2df2 out/build/app_app.a(application.o)
 .debug_info    0x0000000000015f27       0xab /opt/sming/Sming/compiler/lib//libmicroc.a(isspace.o)
 .debug_info    0x0000000000015fd2       0xab /opt/sming/Sming/compiler/lib//libmicroc.a(tolower.o)
 .debug_info    0x000000000001607d       0xab /opt/sming/Sming/compiler/lib//libmicroc.a(toupper.o)
 .debug_info    0x0000000000016128       0xef /opt/sming/Sming/compiler/lib//libmicroc.a(atof.o)
 .debug_info    0x0000000000016217      0x103 /opt/sming/Sming/compiler/lib//libmicroc.a(atoi.o)
 .debug_info    0x000000000001631a      0x4d1 /opt/sming/Sming/compiler/lib//libmicroc.a(strtod.o)
 .debug_info    0x00000000000167eb      0x11c /opt/sming/Sming/compiler/lib//libmicroc.a(__fpclassify.o)
 .debug_info    0x0000000000016907      0x100 /opt/sming/Sming/compiler/lib//libmicroc.a(strchr.o)
 .debug_info    0x0000000000016a07       0xfc /opt/sming/Sming/compiler/lib//libmicroc.a(strrchr.o)
 .debug_info    0x0000000000016b03      0x124 /opt/sming/Sming/compiler/lib//libmicroc.a(strchrnul.o)
 .debug_info    0x0000000000016c27      0x242 /opt/sming/Sming/compiler/lib//libmicroc.a(malloc.o)
 .debug_info    0x0000000000016e69       0xcb /opt/sming/Sming/compiler/lib//libmicroc.a(abort.o)
 .debug_info    0x0000000000016f34      0xbee /opt/sming/Sming/compiler/lib//libmicroc.a(floatscan.o)
 .debug_info    0x0000000000017b22      0x33a /opt/sming/Sming/compiler/lib//libmicroc.a(shgetc.o)
 .debug_info    0x0000000000017e5c      0x324 /opt/sming/Sming/compiler/lib//libmicroc.a(__uflow.o)
 .debug_info    0x0000000000018180      0x318 /opt/sming/Sming/compiler/lib//libmicroc.a(__toread.o)
 .debug_info    0x0000000000018498      0x2dc /opt/sming/Sming/compiler/lib//libmicroc.a(__stdio_exit.o)
 .debug_info    0x0000000000018774       0xf1 /opt/sming/Sming/compiler/lib//libmicroc.a(fmodl.o)
 .debug_info    0x0000000000018865       0xea /opt/sming/Sming/compiler/lib//libmicroc.a(scalbn.o)
 .debug_info    0x000000000001894f       0xeb /opt/sming/Sming/compiler/lib//libmicroc.a(scalbnl.o)
 .debug_info    0x0000000000018a3a       0x59 /opt/sming/Sming/compiler/lib//libmicroc.a(__errno_location.o)
 .debug_info    0x0000000000018a93      0x174 /opt/sming/Sming/compiler/lib//libmicroc.a(fmod.o)
 .debug_info    0x0000000000018c07       0xab /opt/sming/Sming/compiler/lib//libmicrogcc.a(_ashldi3.o)
 .debug_info    0x0000000000018cb2       0xac /opt/sming/Sming/compiler/lib//libmicrogcc.a(_cmpdf2.o)
 .debug_info    0x0000000000018d5e       0xab /opt/sming/Sming/compiler/lib//libmicrogcc.a(_lshrdi3.o)
 .debug_info    0x0000000000018e09       0xab /opt/sming/Sming/compiler/lib//libmicrogcc.a(_modsi3.o)
 .debug_info    0x0000000000018eb4     0x122d /opt/sming/Sming/compiler/lib//libsming.a(Timer.o)
 .debug_info    0x000000000001a0e1       0xab /opt/sming/Sming/compiler/lib//libmicrogcc.a(_ashrdi3.o)
 .debug_info    0x000000000001a18c       0xac /opt/sming/Sming/compiler/lib//libmicrogcc.a(_divsf3.o)
 .debug_info    0x000000000001a238       0xac /opt/sming/Sming/compiler/lib//libmicrogcc.a(_fixsfsi.o)

.debug_abbrev   0x0000000000000000     0x47f6
 .debug_abbrev  0x0000000000000000      0x599 /opt/sming/Sming/compiler/lib//libsming.a(user_main.o)
 .debug_abbrev  0x0000000000000599      0x64a /opt/sming/Sming/compiler/lib//libsming.a(System.o)
 .debug_abbrev  0x0000000000000be3      0x1be /opt/sming/Sming/compiler/lib//libsming.a(esp_cplusplus.o)
 .debug_abbrev  0x0000000000000da1      0x629 /opt/sming/Sming/compiler/lib//libsming.a(m_printf.o)
 .debug_abbrev  0x00000000000013ca      0x1a1 /opt/sming/Sming/compiler/lib//libsming.a(stringconversion.o)
 .debug_abbrev  0x000000000000156b      0x61d /opt/sming/Sming/compiler/lib//libsming.a(IPAddress.o)
 .debug_abbrev  0x0000000000001b88      0x531 /opt/sming/Sming/compiler/lib//libsming.a(Print.o)
 .debug_abbrev  0x00000000000020b9      0x4d9 /opt/sming/Sming/compiler/lib//libsming.a(WString.o)
 .debug_abbrev  0x0000000000002592      0x49d /opt/sming/Sming/compiler/lib//libsming.a(Interrupts.o)
 .debug_abbrev  0x0000000000002a2f      0x2a0 /opt/sming/Sming/compiler/lib//libsming.a(Digital.o)
 .debug_abbrev  0x0000000000002ccf      0x576 out/build/app_app.a(application.o)
 .debug_abbrev  0x0000000000003245       0x53 /opt/sming/Sming/compiler/lib//libmicroc.a(isspace.o)
 .debug_abbrev  0x0000000000003298       0x53 /opt/sming/Sming/compiler/lib//libmicroc.a(tolower.o)
 .debug_abbrev  0x00000000000032eb       0x53 /opt/sming/Sming/compiler/lib//libmicroc.a(toupper.o)
 .debug_abbrev  0x000000000000333e       0x98 /opt/sming/Sming/compiler/lib//libmicroc.a(atof.o)
 .debug_abbrev  0x00000000000033d6       0xac /opt/sming/Sming/compiler/lib//libmicroc.a(atoi.o)
 .debug_abbrev  0x0000000000003482      0x170 /opt/sming/Sming/compiler/lib//libmicroc.a(strtod.o)
 .debug_abbrev  0x00000000000035f2       0xbc /opt/sming/Sming/compiler/lib//libmicroc.a(__fpclassify.o)
 .debug_abbrev  0x00000000000036ae       0xa5 /opt/sming/Sming/compiler/lib//libmicroc.a(strchr.o)
 .debug_abbrev  0x0000000000003753       0xa5 /opt/sming/Sming/compiler/lib//libmicroc.a(strrchr.o)
 .debug_abbrev  0x00000000000037f8       0xb2 /opt/sming/Sming/compiler/lib//libmicroc.a(strchrnul.o)
 .debug_abbrev  0x00000000000038aa      0x137 /opt/sming/Sming/compiler/lib//libmicroc.a(malloc.o)
 .debug_abbrev  0x00000000000039e1       0x8c /opt/sming/Sming/compiler/lib//libmicroc.a(abort.o)
 .debug_abbrev  0x0000000000003a6d      0x2bf /opt/sming/Sming/compiler/lib//libmicroc.a(floatscan.o)
 .debug_abbrev  0x0000000000003d2c      0x121 /opt/sming/Sming/compiler/lib//libmicroc.a(shgetc.o)
 .debug_abbrev  0x0000000000003e4d      0x103 /opt/sming/Sming/compiler/lib//libmicroc.a(__uflow.o)
 .debug_abbrev  0x0000000000003f50      0x108 /opt/sming/Sming/compiler/lib//libmicroc.a(__toread.o)
 .debug_abbrev  0x0000000000004058       0xbb /opt/sming/Sming/compiler/lib//libmicroc.a(__stdio_exit.o)
 .debug_abbrev  0x0000000000004113       0x86 /opt/sming/Sming/compiler/lib//libmicroc.a(fmodl.o)
 .debug_abbrev  0x0000000000004199       0x89 /opt/sming/Sming/compiler/lib//libmicroc.a(scalbn.o)
 .debug_abbrev  0x0000000000004222       0x86 /opt/sming/Sming/compiler/lib//libmicroc.a(scalbnl.o)
 .debug_abbrev  0x00000000000042a8       0x51 /opt/sming/Sming/compiler/lib//libmicroc.a(__errno_location.o)
 .debug_abbrev  0x00000000000042f9       0xb6 /opt/sming/Sming/compiler/lib//libmicroc.a(fmod.o)
 .debug_abbrev  0x00000000000043af       0x14 /opt/sming/Sming/compiler/lib//libmicrogcc.a(_ashldi3.o)
 .debug_abbrev  0x00000000000043c3       0x14 /opt/sming/Sming/compiler/lib//libmicrogcc.a(_cmpdf2.o)
 .debug_abbrev  0x00000000000043d7       0x14 /opt/sming/Sming/compiler/lib//libmicrogcc.a(_lshrdi3.o)
 .debug_abbrev  0x00000000000043eb       0x14 /opt/sming/Sming/compiler/lib//libmicrogcc.a(_modsi3.o)
 .debug_abbrev  0x00000000000043ff      0x3bb /opt/sming/Sming/compiler/lib//libsming.a(Timer.o)
 .debug_abbrev  0x00000000000047ba       0x14 /opt/sming/Sming/compiler/lib//libmicrogcc.a(_ashrdi3.o)
 .debug_abbrev  0x00000000000047ce       0x14 /opt/sming/Sming/compiler/lib//libmicrogcc.a(_divsf3.o)
 .debug_abbrev  0x00000000000047e2       0x14 /opt/sming/Sming/compiler/lib//libmicrogcc.a(_fixsfsi.o)

.debug_loc      0x0000000000000000     0x8a53
 .debug_loc     0x0000000000000000       0x20 /opt/sming/Sming/compiler/lib//libsming.a(user_main.o)
 .debug_loc     0x0000000000000020      0xa0b /opt/sming/Sming/compiler/lib//libsming.a(System.o)
 .debug_loc     0x0000000000000a2b       0xaf /opt/sming/Sming/compiler/lib//libsming.a(esp_cplusplus.o)
 .debug_loc     0x0000000000000ada      0x8bc /opt/sming/Sming/compiler/lib//libsming.a(m_printf.o)
 .debug_loc     0x0000000000001396      0x87f /opt/sming/Sming/compiler/lib//libsming.a(stringconversion.o)
 .debug_loc     0x0000000000001c15      0x4d1 /opt/sming/Sming/compiler/lib//libsming.a(IPAddress.o)
 .debug_loc     0x00000000000020e6     0x121b /opt/sming/Sming/compiler/lib//libsming.a(Print.o)
 .debug_loc     0x0000000000003301     0x21a2 /opt/sming/Sming/compiler/lib//libsming.a(WString.o)
 .debug_loc     0x00000000000054a3      0x701 /opt/sming/Sming/compiler/lib//libsming.a(Interrupts.o)
 .debug_loc     0x0000000000005ba4      0x35b /opt/sming/Sming/compiler/lib//libsming.a(Digital.o)
 .debug_loc     0x0000000000005eff       0x20 out/build/app_app.a(application.o)
 .debug_loc     0x0000000000005f1f       0x2e /opt/sming/Sming/compiler/lib//libmicroc.a(isspace.o)
 .debug_loc     0x0000000000005f4d       0x21 /opt/sming/Sming/compiler/lib//libmicroc.a(tolower.o)
 .debug_loc     0x0000000000005f6e       0x21 /opt/sming/Sming/compiler/lib//libmicroc.a(toupper.o)
 .debug_loc     0x0000000000005f8f       0x21 /opt/sming/Sming/compiler/lib//libmicroc.a(atof.o)
 .debug_loc     0x0000000000005fb0       0x9a /opt/sming/Sming/compiler/lib//libmicroc.a(atoi.o)
 .debug_loc     0x000000000000604a      0x14a /opt/sming/Sming/compiler/lib//libmicroc.a(strtod.o)
 .debug_loc     0x0000000000006194       0xb6 /opt/sming/Sming/compiler/lib//libmicroc.a(__fpclassify.o)
 .debug_loc     0x000000000000624a       0x6b /opt/sming/Sming/compiler/lib//libmicroc.a(strchr.o)
 .debug_loc     0x00000000000062b5       0x42 /opt/sming/Sming/compiler/lib//libmicroc.a(strrchr.o)
 .debug_loc     0x00000000000062f7       0x9a /opt/sming/Sming/compiler/lib//libmicroc.a(strchrnul.o)
 .debug_loc     0x0000000000006391      0x11c /opt/sming/Sming/compiler/lib//libmicroc.a(malloc.o)
 .debug_loc     0x00000000000064ad     0x1873 /opt/sming/Sming/compiler/lib//libmicroc.a(floatscan.o)
 .debug_loc     0x0000000000007d20       0x75 /opt/sming/Sming/compiler/lib//libmicroc.a(shgetc.o)
 .debug_loc     0x0000000000007d95       0x2c /opt/sming/Sming/compiler/lib//libmicroc.a(__uflow.o)
 .debug_loc     0x0000000000007dc1       0x2c /opt/sming/Sming/compiler/lib//libmicroc.a(__toread.o)
 .debug_loc     0x0000000000007ded       0x50 /opt/sming/Sming/compiler/lib//libmicroc.a(fmodl.o)
 .debug_loc     0x0000000000007e3d      0x1c2 /opt/sming/Sming/compiler/lib//libmicroc.a(scalbn.o)
 .debug_loc     0x0000000000007fff       0x49 /opt/sming/Sming/compiler/lib//libmicroc.a(scalbnl.o)
 .debug_loc     0x0000000000008048      0x242 /opt/sming/Sming/compiler/lib//libmicroc.a(fmod.o)
 .debug_loc     0x000000000000828a      0x7c9 /opt/sming/Sming/compiler/lib//libsming.a(Timer.o)

.debug_aranges  0x0000000000000000      0xbb8
 .debug_aranges
                0x0000000000000000       0x38 /opt/sming/Sming/compiler/lib//libsming.a(user_main.o)
 .debug_aranges
                0x0000000000000038       0xf0 /opt/sming/Sming/compiler/lib//libsming.a(System.o)
 .debug_aranges
                0x0000000000000128       0x68 /opt/sming/Sming/compiler/lib//libsming.a(esp_cplusplus.o)
 .debug_aranges
                0x0000000000000190       0x48 /opt/sming/Sming/compiler/lib//libsming.a(m_printf.o)
 .debug_aranges
                0x00000000000001d8       0x48 /opt/sming/Sming/compiler/lib//libsming.a(stringconversion.o)
 .debug_aranges
                0x0000000000000220       0x90 /opt/sming/Sming/compiler/lib//libsming.a(IPAddress.o)
 .debug_aranges
                0x00000000000002b0       0xf0 /opt/sming/Sming/compiler/lib//libsming.a(Print.o)
 .debug_aranges
                0x00000000000003a0      0x298 /opt/sming/Sming/compiler/lib//libsming.a(WString.o)
 .debug_aranges
                0x0000000000000638       0xa0 /opt/sming/Sming/compiler/lib//libsming.a(Interrupts.o)
 .debug_aranges
                0x00000000000006d8       0x58 /opt/sming/Sming/compiler/lib//libsming.a(Digital.o)
 .debug_aranges
                0x0000000000000730       0x40 out/build/app_app.a(application.o)
 .debug_aranges
                0x0000000000000770       0x20 /opt/sming/Sming/compiler/lib//libmicroc.a(isspace.o)
 .debug_aranges
                0x0000000000000790       0x20 /opt/sming/Sming/compiler/lib//libmicroc.a(tolower.o)
 .debug_aranges
                0x00000000000007b0       0x20 /opt/sming/Sming/compiler/lib//libmicroc.a(toupper.o)
 .debug_aranges
                0x00000000000007d0       0x20 /opt/sming/Sming/compiler/lib//libmicroc.a(atof.o)
 .debug_aranges
                0x00000000000007f0       0x20 /opt/sming/Sming/compiler/lib//libmicroc.a(atoi.o)
 .debug_aranges
                0x0000000000000810       0x20 /opt/sming/Sming/compiler/lib//libmicroc.a(strtod.o)
 .debug_aranges
                0x0000000000000830       0x20 /opt/sming/Sming/compiler/lib//libmicroc.a(__fpclassify.o)
 .debug_aranges
                0x0000000000000850       0x20 /opt/sming/Sming/compiler/lib//libmicroc.a(strchr.o)
 .debug_aranges
                0x0000000000000870       0x20 /opt/sming/Sming/compiler/lib//libmicroc.a(strrchr.o)
 .debug_aranges
                0x0000000000000890       0x20 /opt/sming/Sming/compiler/lib//libmicroc.a(strchrnul.o)
 .debug_aranges
                0x00000000000008b0       0x20 /opt/sming/Sming/compiler/lib//libmicroc.a(malloc.o)
 .debug_aranges
                0x00000000000008d0       0x20 /opt/sming/Sming/compiler/lib//libmicroc.a(abort.o)
 .debug_aranges
                0x00000000000008f0       0x20 /opt/sming/Sming/compiler/lib//libmicroc.a(floatscan.o)
 .debug_aranges
                0x0000000000000910       0x20 /opt/sming/Sming/compiler/lib//libmicroc.a(shgetc.o)
 .debug_aranges
                0x0000000000000930       0x20 /opt/sming/Sming/compiler/lib//libmicroc.a(__uflow.o)
 .debug_aranges
                0x0000000000000950       0x20 /opt/sming/Sming/compiler/lib//libmicroc.a(__toread.o)
 .debug_aranges
                0x0000000000000970       0x20 /opt/sming/Sming/compiler/lib//libmicroc.a(__stdio_exit.o)
 .debug_aranges
                0x0000000000000990       0x20 /opt/sming/Sming/compiler/lib//libmicroc.a(fmodl.o)
 .debug_aranges
                0x00000000000009b0       0x20 /opt/sming/Sming/compiler/lib//libmicroc.a(scalbn.o)
 .debug_aranges
                0x00000000000009d0       0x20 /opt/sming/Sming/compiler/lib//libmicroc.a(scalbnl.o)
 .debug_aranges
                0x00000000000009f0       0x20 /opt/sming/Sming/compiler/lib//libmicroc.a(__errno_location.o)
 .debug_aranges
                0x0000000000000a10       0x20 /opt/sming/Sming/compiler/lib//libmicroc.a(fmod.o)
 .debug_aranges
                0x0000000000000a30       0x20 /opt/sming/Sming/compiler/lib//libmicrogcc.a(_ashldi3.o)
 .debug_aranges
                0x0000000000000a50       0x20 /opt/sming/Sming/compiler/lib//libmicrogcc.a(_cmpdf2.o)
 .debug_aranges
                0x0000000000000a70       0x20 /opt/sming/Sming/compiler/lib//libmicrogcc.a(_lshrdi3.o)
 .debug_aranges
                0x0000000000000a90       0x20 /opt/sming/Sming/compiler/lib//libmicrogcc.a(_modsi3.o)
 .debug_aranges
                0x0000000000000ab0       0xa8 /opt/sming/Sming/compiler/lib//libsming.a(Timer.o)
 .debug_aranges
                0x0000000000000b58       0x20 /opt/sming/Sming/compiler/lib//libmicrogcc.a(_ashrdi3.o)
 .debug_aranges
                0x0000000000000b78       0x20 /opt/sming/Sming/compiler/lib//libmicrogcc.a(_divsf3.o)
 .debug_aranges
                0x0000000000000b98       0x20 /opt/sming/Sming/compiler/lib//libmicrogcc.a(_fixsfsi.o)

.debug_ranges   0x0000000000000000     0x1020
 .debug_ranges  0x0000000000000000       0x48 /opt/sming/Sming/compiler/lib//libsming.a(user_main.o)
 .debug_ranges  0x0000000000000048      0x1d8 /opt/sming/Sming/compiler/lib//libsming.a(System.o)
 .debug_ranges  0x0000000000000220       0x58 /opt/sming/Sming/compiler/lib//libsming.a(esp_cplusplus.o)
 .debug_ranges  0x0000000000000278       0xa8 /opt/sming/Sming/compiler/lib//libsming.a(m_printf.o)
 .debug_ranges  0x0000000000000320       0xa0 /opt/sming/Sming/compiler/lib//libsming.a(stringconversion.o)
 .debug_ranges  0x00000000000003c0      0x150 /opt/sming/Sming/compiler/lib//libsming.a(IPAddress.o)
 .debug_ranges  0x0000000000000510      0x238 /opt/sming/Sming/compiler/lib//libsming.a(Print.o)
 .debug_ranges  0x0000000000000748      0x590 /opt/sming/Sming/compiler/lib//libsming.a(WString.o)
 .debug_ranges  0x0000000000000cd8       0xc8 /opt/sming/Sming/compiler/lib//libsming.a(Interrupts.o)
 .debug_ranges  0x0000000000000da0       0x80 /opt/sming/Sming/compiler/lib//libsming.a(Digital.o)
 .debug_ranges  0x0000000000000e20       0x68 out/build/app_app.a(application.o)
 .debug_ranges  0x0000000000000e88       0x18 /opt/sming/Sming/compiler/lib//libmicroc.a(atoi.o)
 .debug_ranges  0x0000000000000ea0       0x18 /opt/sming/Sming/compiler/lib//libmicroc.a(malloc.o)
 .debug_ranges  0x0000000000000eb8       0x80 /opt/sming/Sming/compiler/lib//libmicroc.a(floatscan.o)
 .debug_ranges  0x0000000000000f38       0xe8 /opt/sming/Sming/compiler/lib//libsming.a(Timer.o)

.debug_line     0x0000000000000000     0x8030
 .debug_line    0x0000000000000000      0x4d9 /opt/sming/Sming/compiler/lib//libsming.a(user_main.o)
 .debug_line    0x00000000000004d9      0x986 /opt/sming/Sming/compiler/lib//libsming.a(System.o)
 .debug_line    0x0000000000000e5f      0x23a /opt/sming/Sming/compiler/lib//libsming.a(esp_cplusplus.o)
 .debug_line    0x0000000000001099      0x898 /opt/sming/Sming/compiler/lib//libsming.a(m_printf.o)
 .debug_line    0x0000000000001931      0x495 /opt/sming/Sming/compiler/lib//libsming.a(stringconversion.o)
 .debug_line    0x0000000000001dc6      0x7a3 /opt/sming/Sming/compiler/lib//libsming.a(IPAddress.o)
 .debug_line    0x0000000000002569      0x850 /opt/sming/Sming/compiler/lib//libsming.a(Print.o)
 .debug_line    0x0000000000002db9     0x153d /opt/sming/Sming/compiler/lib//libsming.a(WString.o)
 .debug_line    0x00000000000042f6      0x64c /opt/sming/Sming/compiler/lib//libsming.a(Interrupts.o)
 .debug_line    0x0000000000004942      0x45b /opt/sming/Sming/compiler/lib//libsming.a(Digital.o)
 .debug_line    0x0000000000004d9d      0x61e out/build/app_app.a(application.o)
 .debug_line    0x00000000000053bb       0x4a /opt/sming/Sming/compiler/lib//libmicroc.a(isspace.o)
 .debug_line    0x0000000000005405       0x56 /opt/sming/Sming/compiler/lib//libmicroc.a(tolower.o)
 .debug_line    0x000000000000545b       0x56 /opt/sming/Sming/compiler/lib//libmicroc.a(toupper.o)
 .debug_line    0x00000000000054b1       0x68 /opt/sming/Sming/compiler/lib//libmicroc.a(atof.o)
 .debug_line    0x0000000000005519       0xdb /opt/sming/Sming/compiler/lib//libmicroc.a(atoi.o)
 .debug_line    0x00000000000055f4      0x142 /opt/sming/Sming/compiler/lib//libmicroc.a(strtod.o)
 .debug_line    0x0000000000005736       0xbe /opt/sming/Sming/compiler/lib//libmicroc.a(__fpclassify.o)
 .debug_line    0x00000000000057f4       0x68 /opt/sming/Sming/compiler/lib//libmicroc.a(strchr.o)
 .debug_line    0x000000000000585c       0x4b /opt/sming/Sming/compiler/lib//libmicroc.a(strrchr.o)
 .debug_line    0x00000000000058a7       0xfb /opt/sming/Sming/compiler/lib//libmicroc.a(strchrnul.o)
 .debug_line    0x00000000000059a2       0xec /opt/sming/Sming/compiler/lib//libmicroc.a(malloc.o)
 .debug_line    0x0000000000005a8e       0x6d /opt/sming/Sming/compiler/lib//libmicroc.a(abort.o)
 .debug_line    0x0000000000005afb      0xe0b /opt/sming/Sming/compiler/lib//libmicroc.a(floatscan.o)
 .debug_line    0x0000000000006906      0x130 /opt/sming/Sming/compiler/lib//libmicroc.a(shgetc.o)
 .debug_line    0x0000000000006a36       0xaf /opt/sming/Sming/compiler/lib//libmicroc.a(__uflow.o)
 .debug_line    0x0000000000006ae5       0xf2 /opt/sming/Sming/compiler/lib//libmicroc.a(__toread.o)
 .debug_line    0x0000000000006bd7       0x8c /opt/sming/Sming/compiler/lib//libmicroc.a(__stdio_exit.o)
 .debug_line    0x0000000000006c63       0x59 /opt/sming/Sming/compiler/lib//libmicroc.a(fmodl.o)
 .debug_line    0x0000000000006cbc       0xd0 /opt/sming/Sming/compiler/lib//libmicroc.a(scalbn.o)
 .debug_line    0x0000000000006d8c       0x5b /opt/sming/Sming/compiler/lib//libmicroc.a(scalbnl.o)
 .debug_line    0x0000000000006de7       0x4d /opt/sming/Sming/compiler/lib//libmicroc.a(__errno_location.o)
 .debug_line    0x0000000000006e34      0x214 /opt/sming/Sming/compiler/lib//libmicroc.a(fmod.o)
 .debug_line    0x0000000000007048       0x85 /opt/sming/Sming/compiler/lib//libmicrogcc.a(_ashldi3.o)
 .debug_line    0x00000000000070cd      0x35c /opt/sming/Sming/compiler/lib//libmicrogcc.a(_cmpdf2.o)
 .debug_line    0x0000000000007429       0x85 /opt/sming/Sming/compiler/lib//libmicrogcc.a(_lshrdi3.o)
 .debug_line    0x00000000000074ae       0xe5 /opt/sming/Sming/compiler/lib//libmicrogcc.a(_modsi3.o)
 .debug_line    0x0000000000007593      0x654 /opt/sming/Sming/compiler/lib//libsming.a(Timer.o)
 .debug_line    0x0000000000007be7       0x85 /opt/sming/Sming/compiler/lib//libmicrogcc.a(_ashrdi3.o)
 .debug_line    0x0000000000007c6c      0x2e4 /opt/sming/Sming/compiler/lib//libmicrogcc.a(_divsf3.o)
 .debug_line    0x0000000000007f50       0xe0 /opt/sming/Sming/compiler/lib//libmicrogcc.a(_fixsfsi.o)

.debug_str      0x0000000000000000     0x4883
 .debug_str     0x0000000000000000     0x1d38 /opt/sming/Sming/compiler/lib//libsming.a(user_main.o)
                                       0x1eb4 (size before relaxing)
 .debug_str     0x0000000000001d38     0x1259 /opt/sming/Sming/compiler/lib//libsming.a(System.o)
                                       0x1b2e (size before relaxing)
 .debug_str     0x0000000000002f91       0xcb /opt/sming/Sming/compiler/lib//libsming.a(esp_cplusplus.o)
                                        0x329 (size before relaxing)
 .debug_str     0x000000000000305c      0x11d /opt/sming/Sming/compiler/lib//libsming.a(m_printf.o)
                                       0x1ad5 (size before relaxing)
 .debug_str     0x0000000000003179       0xba /opt/sming/Sming/compiler/lib//libsming.a(stringconversion.o)
                                        0x2e1 (size before relaxing)
 .debug_str     0x0000000000003233      0x370 /opt/sming/Sming/compiler/lib//libsming.a(IPAddress.o)
                                       0x1d46 (size before relaxing)
 .debug_str     0x00000000000035a3      0x347 /opt/sming/Sming/compiler/lib//libsming.a(Print.o)
                                        0xf1e (size before relaxing)
 .debug_str     0x00000000000038ea      0x31a /opt/sming/Sming/compiler/lib//libsming.a(WString.o)
                                        0xe74 (size before relaxing)
 .debug_str     0x0000000000003c04      0x37f /opt/sming/Sming/compiler/lib//libsming.a(Interrupts.o)
                                        0x9b4 (size before relaxing)
 .debug_str     0x0000000000003f83       0xf8 /opt/sming/Sming/compiler/lib//libsming.a(Digital.o)
                                        0x504 (size before relaxing)
 .debug_str     0x000000000000407b      0x369 out/build/app_app.a(application.o)
                                       0x1e3a (size before relaxing)
 .debug_str     0x00000000000043e4       0x49 /opt/sming/Sming/compiler/lib//libmicroc.a(isspace.o)
                                         0xf0 (size before relaxing)
 .debug_str     0x000000000000442d       0x10 /opt/sming/Sming/compiler/lib//libmicroc.a(tolower.o)
                                         0xf0 (size before relaxing)
 .debug_str     0x000000000000443d       0x10 /opt/sming/Sming/compiler/lib//libmicroc.a(toupper.o)
                                         0xf0 (size before relaxing)
 .debug_str     0x000000000000444d       0x15 /opt/sming/Sming/compiler/lib//libmicroc.a(atof.o)
                                         0xe9 (size before relaxing)
 .debug_str     0x0000000000004462       0x18 /opt/sming/Sming/compiler/lib//libmicroc.a(atoi.o)
                                         0xec (size before relaxing)
 .debug_str     0x000000000000447a       0xe2 /opt/sming/Sming/compiler/lib//libmicroc.a(strtod.o)
                                        0x20b (size before relaxing)
 .debug_str     0x000000000000455c       0x21 /opt/sming/Sming/compiler/lib//libmicroc.a(__fpclassify.o)
                                        0x102 (size before relaxing)
 .debug_str     0x000000000000457d       0x1c /opt/sming/Sming/compiler/lib//libmicroc.a(strchr.o)
                                         0xf2 (size before relaxing)
 .debug_str     0x0000000000004599       0x1d /opt/sming/Sming/compiler/lib//libmicroc.a(strrchr.o)
                                         0xf4 (size before relaxing)
 .debug_str     0x00000000000045b6       0x13 /opt/sming/Sming/compiler/lib//libmicroc.a(strchrnul.o)
                                        0x10e (size before relaxing)
 .debug_str     0x00000000000045c9       0x50 /opt/sming/Sming/compiler/lib//libmicroc.a(malloc.o)
                                        0x13a (size before relaxing)
 .debug_str     0x0000000000004619       0x1c /opt/sming/Sming/compiler/lib//libmicroc.a(abort.o)
                                         0xf1 (size before relaxing)
 .debug_str     0x0000000000004635       0xb8 /opt/sming/Sming/compiler/lib//libmicroc.a(floatscan.o)
                                        0x2ab (size before relaxing)
 .debug_str     0x00000000000046ed       0x1a /opt/sming/Sming/compiler/lib//libmicroc.a(shgetc.o)
                                        0x1dd (size before relaxing)
 .debug_str     0x0000000000004707       0x19 /opt/sming/Sming/compiler/lib//libmicroc.a(__uflow.o)
                                        0x1d3 (size before relaxing)
 .debug_str     0x0000000000004720       0x3f /opt/sming/Sming/compiler/lib//libmicroc.a(__toread.o)
                                        0x1fa (size before relaxing)
 .debug_str     0x000000000000475f       0x2d /opt/sming/Sming/compiler/lib//libmicroc.a(__stdio_exit.o)
                                        0x1df (size before relaxing)
 .debug_str     0x000000000000478c       0x12 /opt/sming/Sming/compiler/lib//libmicroc.a(fmodl.o)
                                         0xee (size before relaxing)
 .debug_str     0x000000000000479e        0xe /opt/sming/Sming/compiler/lib//libmicroc.a(scalbn.o)
                                         0xe8 (size before relaxing)
 .debug_str     0x00000000000047ac        0xf /opt/sming/Sming/compiler/lib//libmicroc.a(scalbnl.o)
                                         0xf4 (size before relaxing)
 .debug_str     0x00000000000047bb       0x20 /opt/sming/Sming/compiler/lib//libmicroc.a(__errno_location.o)
                                         0x6a (size before relaxing)
 .debug_str     0x00000000000047db       0x1a /opt/sming/Sming/compiler/lib//libmicroc.a(fmod.o)
                                         0xf2 (size before relaxing)
 .debug_str     0x00000000000047f5       0x8e /opt/sming/Sming/compiler/lib//libsming.a(Timer.o)
                                        0x875 (size before relaxing)
